Archive member included to satisfy reference by file (symbol)

c:/altera/14.1/nios2eds/bin/gnu/h-x86_64-mingw32/bin/../lib/gcc/nios2-elf/4.8.3\libgcc.a(lib2-divmod.o)
                              obj/default/drivers/drivers.o (__divsi3)
c:/altera/14.1/nios2eds/bin/gnu/h-x86_64-mingw32/bin/../lib/gcc/nios2-elf/4.8.3\libgcc.a(fixsfsi.o)
                              obj/default/drivers/drivers.o (__fixsfsi)
c:/altera/14.1/nios2eds/bin/gnu/h-x86_64-mingw32/bin/../lib/gcc/nios2-elf/4.8.3/../../../../../H-x86_64-mingw32/nios2-elf/lib\libc.a(lib_a-malloc.o)
                              obj/default/graphic_lib/draw_gimps.o (malloc)
c:/altera/14.1/nios2eds/bin/gnu/h-x86_64-mingw32/bin/../lib/gcc/nios2-elf/4.8.3/../../../../../H-x86_64-mingw32/nios2-elf/lib\libc.a(lib_a-mallocr.o)
                              c:/altera/14.1/nios2eds/bin/gnu/h-x86_64-mingw32/bin/../lib/gcc/nios2-elf/4.8.3/../../../../../H-x86_64-mingw32/nios2-elf/lib\libc.a(lib_a-malloc.o) (_malloc_r)
c:/altera/14.1/nios2eds/bin/gnu/h-x86_64-mingw32/bin/../lib/gcc/nios2-elf/4.8.3/../../../../../H-x86_64-mingw32/nios2-elf/lib\libc.a(lib_a-memcpy.o)
                              obj/default/graphic_lib/draw_gimps.o (memcpy)
c:/altera/14.1/nios2eds/bin/gnu/h-x86_64-mingw32/bin/../lib/gcc/nios2-elf/4.8.3/../../../../../H-x86_64-mingw32/nios2-elf/lib\libc.a(lib_a-memset.o)
                              obj/default/vip_fr.o (memset)
c:/altera/14.1/nios2eds/bin/gnu/h-x86_64-mingw32/bin/../lib/gcc/nios2-elf/4.8.3/../../../../../H-x86_64-mingw32/nios2-elf/lib\libc.a(lib_a-printf.o)
                              obj/default/graphic_lib/draw_gimps.o (printf)
c:/altera/14.1/nios2eds/bin/gnu/h-x86_64-mingw32/bin/../lib/gcc/nios2-elf/4.8.3/../../../../../H-x86_64-mingw32/nios2-elf/lib\libc.a(lib_a-sbrkr.o)
                              c:/altera/14.1/nios2eds/bin/gnu/h-x86_64-mingw32/bin/../lib/gcc/nios2-elf/4.8.3/../../../../../H-x86_64-mingw32/nios2-elf/lib\libc.a(lib_a-mallocr.o) (_sbrk_r)
c:/altera/14.1/nios2eds/bin/gnu/h-x86_64-mingw32/bin/../lib/gcc/nios2-elf/4.8.3/../../../../../H-x86_64-mingw32/nios2-elf/lib\libc.a(lib_a-strcpy.o)
                              obj/default/graphic_lib/simple_graphics.o (strcpy)
c:/altera/14.1/nios2eds/bin/gnu/h-x86_64-mingw32/bin/../lib/gcc/nios2-elf/4.8.3/../../../../../H-x86_64-mingw32/nios2-elf/lib\libc.a(lib_a-strlen.o)
                              obj/default/graphic_lib/simple_graphics.o (strlen)
c:/altera/14.1/nios2eds/bin/gnu/h-x86_64-mingw32/bin/../lib/gcc/nios2-elf/4.8.3/../../../../../H-x86_64-mingw32/nios2-elf/lib\libc.a(lib_a-vfprintf.o)
                              c:/altera/14.1/nios2eds/bin/gnu/h-x86_64-mingw32/bin/../lib/gcc/nios2-elf/4.8.3/../../../../../H-x86_64-mingw32/nios2-elf/lib\libc.a(lib_a-printf.o) (___vfprintf_internal_r)
c:/altera/14.1/nios2eds/bin/gnu/h-x86_64-mingw32/bin/../lib/gcc/nios2-elf/4.8.3/../../../../../H-x86_64-mingw32/nios2-elf/lib\libc.a(lib_a-wsetup.o)
                              c:/altera/14.1/nios2eds/bin/gnu/h-x86_64-mingw32/bin/../lib/gcc/nios2-elf/4.8.3/../../../../../H-x86_64-mingw32/nios2-elf/lib\libc.a(lib_a-vfprintf.o) (__swsetup_r)
c:/altera/14.1/nios2eds/bin/gnu/h-x86_64-mingw32/bin/../lib/gcc/nios2-elf/4.8.3/../../../../../H-x86_64-mingw32/nios2-elf/lib\libc.a(lib_a-dtoa.o)
                              c:/altera/14.1/nios2eds/bin/gnu/h-x86_64-mingw32/bin/../lib/gcc/nios2-elf/4.8.3/../../../../../H-x86_64-mingw32/nios2-elf/lib\libc.a(lib_a-vfprintf.o) (_dtoa_r)
c:/altera/14.1/nios2eds/bin/gnu/h-x86_64-mingw32/bin/../lib/gcc/nios2-elf/4.8.3/../../../../../H-x86_64-mingw32/nios2-elf/lib\libc.a(lib_a-fflush.o)
                              c:/altera/14.1/nios2eds/bin/gnu/h-x86_64-mingw32/bin/../lib/gcc/nios2-elf/4.8.3/../../../../../H-x86_64-mingw32/nios2-elf/lib\libc.a(lib_a-vfprintf.o) (_fflush_r)
c:/altera/14.1/nios2eds/bin/gnu/h-x86_64-mingw32/bin/../lib/gcc/nios2-elf/4.8.3/../../../../../H-x86_64-mingw32/nios2-elf/lib\libc.a(lib_a-findfp.o)
                              c:/altera/14.1/nios2eds/bin/gnu/h-x86_64-mingw32/bin/../lib/gcc/nios2-elf/4.8.3/../../../../../H-x86_64-mingw32/nios2-elf/lib\libc.a(lib_a-vfprintf.o) (__sinit)
c:/altera/14.1/nios2eds/bin/gnu/h-x86_64-mingw32/bin/../lib/gcc/nios2-elf/4.8.3/../../../../../H-x86_64-mingw32/nios2-elf/lib\libc.a(lib_a-freer.o)
                              c:/altera/14.1/nios2eds/bin/gnu/h-x86_64-mingw32/bin/../lib/gcc/nios2-elf/4.8.3/../../../../../H-x86_64-mingw32/nios2-elf/lib\libc.a(lib_a-malloc.o) (_free_r)
c:/altera/14.1/nios2eds/bin/gnu/h-x86_64-mingw32/bin/../lib/gcc/nios2-elf/4.8.3/../../../../../H-x86_64-mingw32/nios2-elf/lib\libc.a(lib_a-fwalk.o)
                              c:/altera/14.1/nios2eds/bin/gnu/h-x86_64-mingw32/bin/../lib/gcc/nios2-elf/4.8.3/../../../../../H-x86_64-mingw32/nios2-elf/lib\libc.a(lib_a-findfp.o) (_fwalk)
c:/altera/14.1/nios2eds/bin/gnu/h-x86_64-mingw32/bin/../lib/gcc/nios2-elf/4.8.3/../../../../../H-x86_64-mingw32/nios2-elf/lib\libc.a(lib_a-impure.o)
                              c:/altera/14.1/nios2eds/bin/gnu/h-x86_64-mingw32/bin/../lib/gcc/nios2-elf/4.8.3/../../../../../H-x86_64-mingw32/nios2-elf/lib\libc.a(lib_a-fflush.o) (_global_impure_ptr)
c:/altera/14.1/nios2eds/bin/gnu/h-x86_64-mingw32/bin/../lib/gcc/nios2-elf/4.8.3/../../../../../H-x86_64-mingw32/nios2-elf/lib\libc.a(lib_a-int_errno.o)
                              c:/altera/14.1/nios2eds/bin/gnu/h-x86_64-mingw32/bin/../lib/gcc/nios2-elf/4.8.3/../../../../../H-x86_64-mingw32/nios2-elf/lib\libc.a(lib_a-sbrkr.o) (errno)
c:/altera/14.1/nios2eds/bin/gnu/h-x86_64-mingw32/bin/../lib/gcc/nios2-elf/4.8.3/../../../../../H-x86_64-mingw32/nios2-elf/lib\libc.a(lib_a-locale.o)
                              c:/altera/14.1/nios2eds/bin/gnu/h-x86_64-mingw32/bin/../lib/gcc/nios2-elf/4.8.3/../../../../../H-x86_64-mingw32/nios2-elf/lib\libc.a(lib_a-vfprintf.o) (_localeconv_r)
c:/altera/14.1/nios2eds/bin/gnu/h-x86_64-mingw32/bin/../lib/gcc/nios2-elf/4.8.3/../../../../../H-x86_64-mingw32/nios2-elf/lib\libc.a(lib_a-makebuf.o)
                              c:/altera/14.1/nios2eds/bin/gnu/h-x86_64-mingw32/bin/../lib/gcc/nios2-elf/4.8.3/../../../../../H-x86_64-mingw32/nios2-elf/lib\libc.a(lib_a-wsetup.o) (__smakebuf_r)
c:/altera/14.1/nios2eds/bin/gnu/h-x86_64-mingw32/bin/../lib/gcc/nios2-elf/4.8.3/../../../../../H-x86_64-mingw32/nios2-elf/lib\libc.a(lib_a-memchr.o)
                              c:/altera/14.1/nios2eds/bin/gnu/h-x86_64-mingw32/bin/../lib/gcc/nios2-elf/4.8.3/../../../../../H-x86_64-mingw32/nios2-elf/lib\libc.a(lib_a-vfprintf.o) (memchr)
c:/altera/14.1/nios2eds/bin/gnu/h-x86_64-mingw32/bin/../lib/gcc/nios2-elf/4.8.3/../../../../../H-x86_64-mingw32/nios2-elf/lib\libc.a(lib_a-mprec.o)
                              c:/altera/14.1/nios2eds/bin/gnu/h-x86_64-mingw32/bin/../lib/gcc/nios2-elf/4.8.3/../../../../../H-x86_64-mingw32/nios2-elf/lib\libc.a(lib_a-dtoa.o) (_Balloc)
c:/altera/14.1/nios2eds/bin/gnu/h-x86_64-mingw32/bin/../lib/gcc/nios2-elf/4.8.3/../../../../../H-x86_64-mingw32/nios2-elf/lib\libc.a(lib_a-s_fpclassify.o)
                              c:/altera/14.1/nios2eds/bin/gnu/h-x86_64-mingw32/bin/../lib/gcc/nios2-elf/4.8.3/../../../../../H-x86_64-mingw32/nios2-elf/lib\libc.a(lib_a-vfprintf.o) (__fpclassifyd)
c:/altera/14.1/nios2eds/bin/gnu/h-x86_64-mingw32/bin/../lib/gcc/nios2-elf/4.8.3/../../../../../H-x86_64-mingw32/nios2-elf/lib\libc.a(lib_a-stdio.o)
                              c:/altera/14.1/nios2eds/bin/gnu/h-x86_64-mingw32/bin/../lib/gcc/nios2-elf/4.8.3/../../../../../H-x86_64-mingw32/nios2-elf/lib\libc.a(lib_a-findfp.o) (__sread)
c:/altera/14.1/nios2eds/bin/gnu/h-x86_64-mingw32/bin/../lib/gcc/nios2-elf/4.8.3/../../../../../H-x86_64-mingw32/nios2-elf/lib\libc.a(lib_a-strcmp.o)
                              c:/altera/14.1/nios2eds/bin/gnu/h-x86_64-mingw32/bin/../lib/gcc/nios2-elf/4.8.3/../../../../../H-x86_64-mingw32/nios2-elf/lib\libc.a(lib_a-locale.o) (strcmp)
c:/altera/14.1/nios2eds/bin/gnu/h-x86_64-mingw32/bin/../lib/gcc/nios2-elf/4.8.3/../../../../../H-x86_64-mingw32/nios2-elf/lib\libc.a(lib_a-vfiprintf.o)
                              c:/altera/14.1/nios2eds/bin/gnu/h-x86_64-mingw32/bin/../lib/gcc/nios2-elf/4.8.3/../../../../../H-x86_64-mingw32/nios2-elf/lib\libc.a(lib_a-vfprintf.o) (__sprint_r)
c:/altera/14.1/nios2eds/bin/gnu/h-x86_64-mingw32/bin/../lib/gcc/nios2-elf/4.8.3/../../../../../H-x86_64-mingw32/nios2-elf/lib\libc.a(lib_a-writer.o)
                              c:/altera/14.1/nios2eds/bin/gnu/h-x86_64-mingw32/bin/../lib/gcc/nios2-elf/4.8.3/../../../../../H-x86_64-mingw32/nios2-elf/lib\libc.a(lib_a-stdio.o) (_write_r)
c:/altera/14.1/nios2eds/bin/gnu/h-x86_64-mingw32/bin/../lib/gcc/nios2-elf/4.8.3/../../../../../H-x86_64-mingw32/nios2-elf/lib\libc.a(closer.o)
                              c:/altera/14.1/nios2eds/bin/gnu/h-x86_64-mingw32/bin/../lib/gcc/nios2-elf/4.8.3/../../../../../H-x86_64-mingw32/nios2-elf/lib\libc.a(lib_a-stdio.o) (_close_r)
c:/altera/14.1/nios2eds/bin/gnu/h-x86_64-mingw32/bin/../lib/gcc/nios2-elf/4.8.3/../../../../../H-x86_64-mingw32/nios2-elf/lib\libc.a(lib_a-callocr.o)
                              c:/altera/14.1/nios2eds/bin/gnu/h-x86_64-mingw32/bin/../lib/gcc/nios2-elf/4.8.3/../../../../../H-x86_64-mingw32/nios2-elf/lib\libc.a(lib_a-mprec.o) (_calloc_r)
c:/altera/14.1/nios2eds/bin/gnu/h-x86_64-mingw32/bin/../lib/gcc/nios2-elf/4.8.3/../../../../../H-x86_64-mingw32/nios2-elf/lib\libc.a(lib_a-fclose.o)
                              c:/altera/14.1/nios2eds/bin/gnu/h-x86_64-mingw32/bin/../lib/gcc/nios2-elf/4.8.3/../../../../../H-x86_64-mingw32/nios2-elf/lib\libc.a(lib_a-findfp.o) (fclose)
c:/altera/14.1/nios2eds/bin/gnu/h-x86_64-mingw32/bin/../lib/gcc/nios2-elf/4.8.3/../../../../../H-x86_64-mingw32/nios2-elf/lib\libc.a(lib_a-fputwc.o)
                              c:/altera/14.1/nios2eds/bin/gnu/h-x86_64-mingw32/bin/../lib/gcc/nios2-elf/4.8.3/../../../../../H-x86_64-mingw32/nios2-elf/lib\libc.a(lib_a-vfiprintf.o) (_fputwc_r)
c:/altera/14.1/nios2eds/bin/gnu/h-x86_64-mingw32/bin/../lib/gcc/nios2-elf/4.8.3/../../../../../H-x86_64-mingw32/nios2-elf/lib\libc.a(lib_a-fstatr.o)
                              c:/altera/14.1/nios2eds/bin/gnu/h-x86_64-mingw32/bin/../lib/gcc/nios2-elf/4.8.3/../../../../../H-x86_64-mingw32/nios2-elf/lib\libc.a(lib_a-makebuf.o) (_fstat_r)
c:/altera/14.1/nios2eds/bin/gnu/h-x86_64-mingw32/bin/../lib/gcc/nios2-elf/4.8.3/../../../../../H-x86_64-mingw32/nios2-elf/lib\libc.a(lib_a-fvwrite.o)
                              c:/altera/14.1/nios2eds/bin/gnu/h-x86_64-mingw32/bin/../lib/gcc/nios2-elf/4.8.3/../../../../../H-x86_64-mingw32/nios2-elf/lib\libc.a(lib_a-vfiprintf.o) (__sfvwrite_r)
c:/altera/14.1/nios2eds/bin/gnu/h-x86_64-mingw32/bin/../lib/gcc/nios2-elf/4.8.3/../../../../../H-x86_64-mingw32/nios2-elf/lib\libc.a(lib_a-isattyr.o)
                              c:/altera/14.1/nios2eds/bin/gnu/h-x86_64-mingw32/bin/../lib/gcc/nios2-elf/4.8.3/../../../../../H-x86_64-mingw32/nios2-elf/lib\libc.a(lib_a-makebuf.o) (_isatty_r)
c:/altera/14.1/nios2eds/bin/gnu/h-x86_64-mingw32/bin/../lib/gcc/nios2-elf/4.8.3/../../../../../H-x86_64-mingw32/nios2-elf/lib\libc.a(lib_a-lseekr.o)
                              c:/altera/14.1/nios2eds/bin/gnu/h-x86_64-mingw32/bin/../lib/gcc/nios2-elf/4.8.3/../../../../../H-x86_64-mingw32/nios2-elf/lib\libc.a(lib_a-stdio.o) (_lseek_r)
c:/altera/14.1/nios2eds/bin/gnu/h-x86_64-mingw32/bin/../lib/gcc/nios2-elf/4.8.3/../../../../../H-x86_64-mingw32/nios2-elf/lib\libc.a(lib_a-memmove.o)
                              c:/altera/14.1/nios2eds/bin/gnu/h-x86_64-mingw32/bin/../lib/gcc/nios2-elf/4.8.3/../../../../../H-x86_64-mingw32/nios2-elf/lib\libc.a(lib_a-fvwrite.o) (memmove)
c:/altera/14.1/nios2eds/bin/gnu/h-x86_64-mingw32/bin/../lib/gcc/nios2-elf/4.8.3/../../../../../H-x86_64-mingw32/nios2-elf/lib\libc.a(lib_a-readr.o)
                              c:/altera/14.1/nios2eds/bin/gnu/h-x86_64-mingw32/bin/../lib/gcc/nios2-elf/4.8.3/../../../../../H-x86_64-mingw32/nios2-elf/lib\libc.a(lib_a-stdio.o) (_read_r)
c:/altera/14.1/nios2eds/bin/gnu/h-x86_64-mingw32/bin/../lib/gcc/nios2-elf/4.8.3/../../../../../H-x86_64-mingw32/nios2-elf/lib\libc.a(lib_a-reallocr.o)
                              c:/altera/14.1/nios2eds/bin/gnu/h-x86_64-mingw32/bin/../lib/gcc/nios2-elf/4.8.3/../../../../../H-x86_64-mingw32/nios2-elf/lib\libc.a(lib_a-fvwrite.o) (_realloc_r)
c:/altera/14.1/nios2eds/bin/gnu/h-x86_64-mingw32/bin/../lib/gcc/nios2-elf/4.8.3/../../../../../H-x86_64-mingw32/nios2-elf/lib\libc.a(lib_a-wbuf.o)
                              c:/altera/14.1/nios2eds/bin/gnu/h-x86_64-mingw32/bin/../lib/gcc/nios2-elf/4.8.3/../../../../../H-x86_64-mingw32/nios2-elf/lib\libc.a(lib_a-fputwc.o) (__swbuf_r)
c:/altera/14.1/nios2eds/bin/gnu/h-x86_64-mingw32/bin/../lib/gcc/nios2-elf/4.8.3/../../../../../H-x86_64-mingw32/nios2-elf/lib\libc.a(lib_a-wcrtomb.o)
                              c:/altera/14.1/nios2eds/bin/gnu/h-x86_64-mingw32/bin/../lib/gcc/nios2-elf/4.8.3/../../../../../H-x86_64-mingw32/nios2-elf/lib\libc.a(lib_a-fputwc.o) (_wcrtomb_r)
c:/altera/14.1/nios2eds/bin/gnu/h-x86_64-mingw32/bin/../lib/gcc/nios2-elf/4.8.3/../../../../../H-x86_64-mingw32/nios2-elf/lib\libc.a(lib_a-wctomb_r.o)
                              c:/altera/14.1/nios2eds/bin/gnu/h-x86_64-mingw32/bin/../lib/gcc/nios2-elf/4.8.3/../../../../../H-x86_64-mingw32/nios2-elf/lib\libc.a(lib_a-wcrtomb.o) (__wctomb)
c:/altera/14.1/nios2eds/bin/gnu/h-x86_64-mingw32/bin/../lib/gcc/nios2-elf/4.8.3\libgcc.a(_udivdi3.o)
                              c:/altera/14.1/nios2eds/bin/gnu/h-x86_64-mingw32/bin/../lib/gcc/nios2-elf/4.8.3/../../../../../H-x86_64-mingw32/nios2-elf/lib\libc.a(lib_a-vfprintf.o) (__udivdi3)
c:/altera/14.1/nios2eds/bin/gnu/h-x86_64-mingw32/bin/../lib/gcc/nios2-elf/4.8.3\libgcc.a(_umoddi3.o)
                              c:/altera/14.1/nios2eds/bin/gnu/h-x86_64-mingw32/bin/../lib/gcc/nios2-elf/4.8.3/../../../../../H-x86_64-mingw32/nios2-elf/lib\libc.a(lib_a-vfprintf.o) (__umoddi3)
c:/altera/14.1/nios2eds/bin/gnu/h-x86_64-mingw32/bin/../lib/gcc/nios2-elf/4.8.3\libgcc.a(adddf3.o)
                              c:/altera/14.1/nios2eds/bin/gnu/h-x86_64-mingw32/bin/../lib/gcc/nios2-elf/4.8.3/../../../../../H-x86_64-mingw32/nios2-elf/lib\libc.a(lib_a-dtoa.o) (__adddf3)
c:/altera/14.1/nios2eds/bin/gnu/h-x86_64-mingw32/bin/../lib/gcc/nios2-elf/4.8.3\libgcc.a(divdf3.o)
                              c:/altera/14.1/nios2eds/bin/gnu/h-x86_64-mingw32/bin/../lib/gcc/nios2-elf/4.8.3/../../../../../H-x86_64-mingw32/nios2-elf/lib\libc.a(lib_a-dtoa.o) (__divdf3)
c:/altera/14.1/nios2eds/bin/gnu/h-x86_64-mingw32/bin/../lib/gcc/nios2-elf/4.8.3\libgcc.a(eqdf2.o)
                              c:/altera/14.1/nios2eds/bin/gnu/h-x86_64-mingw32/bin/../lib/gcc/nios2-elf/4.8.3/../../../../../H-x86_64-mingw32/nios2-elf/lib\libc.a(lib_a-vfprintf.o) (__eqdf2)
c:/altera/14.1/nios2eds/bin/gnu/h-x86_64-mingw32/bin/../lib/gcc/nios2-elf/4.8.3\libgcc.a(gedf2.o)
                              c:/altera/14.1/nios2eds/bin/gnu/h-x86_64-mingw32/bin/../lib/gcc/nios2-elf/4.8.3/../../../../../H-x86_64-mingw32/nios2-elf/lib\libc.a(lib_a-dtoa.o) (__gedf2)
c:/altera/14.1/nios2eds/bin/gnu/h-x86_64-mingw32/bin/../lib/gcc/nios2-elf/4.8.3\libgcc.a(ledf2.o)
                              c:/altera/14.1/nios2eds/bin/gnu/h-x86_64-mingw32/bin/../lib/gcc/nios2-elf/4.8.3/../../../../../H-x86_64-mingw32/nios2-elf/lib\libc.a(lib_a-vfprintf.o) (__ltdf2)
c:/altera/14.1/nios2eds/bin/gnu/h-x86_64-mingw32/bin/../lib/gcc/nios2-elf/4.8.3\libgcc.a(muldf3.o)
                              c:/altera/14.1/nios2eds/bin/gnu/h-x86_64-mingw32/bin/../lib/gcc/nios2-elf/4.8.3/../../../../../H-x86_64-mingw32/nios2-elf/lib\libc.a(lib_a-dtoa.o) (__muldf3)
c:/altera/14.1/nios2eds/bin/gnu/h-x86_64-mingw32/bin/../lib/gcc/nios2-elf/4.8.3\libgcc.a(subdf3.o)
                              c:/altera/14.1/nios2eds/bin/gnu/h-x86_64-mingw32/bin/../lib/gcc/nios2-elf/4.8.3/../../../../../H-x86_64-mingw32/nios2-elf/lib\libc.a(lib_a-dtoa.o) (__subdf3)
c:/altera/14.1/nios2eds/bin/gnu/h-x86_64-mingw32/bin/../lib/gcc/nios2-elf/4.8.3\libgcc.a(fixdfsi.o)
                              c:/altera/14.1/nios2eds/bin/gnu/h-x86_64-mingw32/bin/../lib/gcc/nios2-elf/4.8.3/../../../../../H-x86_64-mingw32/nios2-elf/lib\libc.a(lib_a-dtoa.o) (__fixdfsi)
c:/altera/14.1/nios2eds/bin/gnu/h-x86_64-mingw32/bin/../lib/gcc/nios2-elf/4.8.3\libgcc.a(floatsidf.o)
                              c:/altera/14.1/nios2eds/bin/gnu/h-x86_64-mingw32/bin/../lib/gcc/nios2-elf/4.8.3/../../../../../H-x86_64-mingw32/nios2-elf/lib\libc.a(lib_a-dtoa.o) (__floatsidf)
c:/altera/14.1/nios2eds/bin/gnu/h-x86_64-mingw32/bin/../lib/gcc/nios2-elf/4.8.3\libgcc.a(floatunsidf.o)
                              c:/altera/14.1/nios2eds/bin/gnu/h-x86_64-mingw32/bin/../lib/gcc/nios2-elf/4.8.3/../../../../../H-x86_64-mingw32/nios2-elf/lib\libc.a(lib_a-dtoa.o) (__floatunsidf)
c:/altera/14.1/nios2eds/bin/gnu/h-x86_64-mingw32/bin/../lib/gcc/nios2-elf/4.8.3\libgcc.a(_clz.o)
                              c:/altera/14.1/nios2eds/bin/gnu/h-x86_64-mingw32/bin/../lib/gcc/nios2-elf/4.8.3\libgcc.a(_udivdi3.o) (__clz_tab)
c:/altera/14.1/nios2eds/bin/gnu/h-x86_64-mingw32/bin/../lib/gcc/nios2-elf/4.8.3\libgcc.a(_clzsi2.o)
                              c:/altera/14.1/nios2eds/bin/gnu/h-x86_64-mingw32/bin/../lib/gcc/nios2-elf/4.8.3\libgcc.a(adddf3.o) (__clzsi2)
../lab5_bsp/\libucosii_bsp.a(alt_close.o)
                              c:/altera/14.1/nios2eds/bin/gnu/h-x86_64-mingw32/bin/../lib/gcc/nios2-elf/4.8.3/../../../../../H-x86_64-mingw32/nios2-elf/lib\libc.a(closer.o) (close)
../lab5_bsp/\libucosii_bsp.a(alt_dcache_flush_all.o)
                              obj/default/vip_fr.o (alt_dcache_flush_all)
../lab5_bsp/\libucosii_bsp.a(alt_dev.o)
                              ../lab5_bsp/\libucosii_bsp.a(alt_close.o) (alt_fd_list)
../lab5_bsp/\libucosii_bsp.a(alt_errno.o)
                              ../lab5_bsp/\libucosii_bsp.a(alt_close.o) (alt_errno)
../lab5_bsp/\libucosii_bsp.a(alt_fstat.o)
                              c:/altera/14.1/nios2eds/bin/gnu/h-x86_64-mingw32/bin/../lib/gcc/nios2-elf/4.8.3/../../../../../H-x86_64-mingw32/nios2-elf/lib\libc.a(lib_a-fstatr.o) (fstat)
../lab5_bsp/\libucosii_bsp.a(alt_iic.o)
                              obj/default/student_code/student_code.o (alt_ic_isr_register)
../lab5_bsp/\libucosii_bsp.a(alt_iic_isr_register.o)
                              ../lab5_bsp/\libucosii_bsp.a(alt_iic.o) (alt_iic_isr_register)
../lab5_bsp/\libucosii_bsp.a(alt_irq_entry.o)
                              ../lab5_bsp/\libucosii_bsp.a(alt_iic_isr_register.o) (alt_irq_entry)
../lab5_bsp/\libucosii_bsp.a(alt_irq_handler.o)
                              ../lab5_bsp/\libucosii_bsp.a(alt_iic_isr_register.o) (alt_irq_handler)
../lab5_bsp/\libucosii_bsp.a(alt_irq_vars.o)
                              ../lab5_bsp/\libucosii_bsp.a(alt_iic.o) (alt_irq_active)
../lab5_bsp/\libucosii_bsp.a(alt_isatty.o)
                              c:/altera/14.1/nios2eds/bin/gnu/h-x86_64-mingw32/bin/../lib/gcc/nios2-elf/4.8.3/../../../../../H-x86_64-mingw32/nios2-elf/lib\libc.a(lib_a-isattyr.o) (isatty)
../lab5_bsp/\libucosii_bsp.a(alt_load.o)
                              ../lab5_bsp//obj/HAL/src/crt0.o (alt_load)
../lab5_bsp/\libucosii_bsp.a(alt_lseek.o)
                              c:/altera/14.1/nios2eds/bin/gnu/h-x86_64-mingw32/bin/../lib/gcc/nios2-elf/4.8.3/../../../../../H-x86_64-mingw32/nios2-elf/lib\libc.a(lib_a-lseekr.o) (lseek)
../lab5_bsp/\libucosii_bsp.a(alt_main.o)
                              ../lab5_bsp//obj/HAL/src/crt0.o (alt_main)
../lab5_bsp/\libucosii_bsp.a(alt_read.o)
                              c:/altera/14.1/nios2eds/bin/gnu/h-x86_64-mingw32/bin/../lib/gcc/nios2-elf/4.8.3/../../../../../H-x86_64-mingw32/nios2-elf/lib\libc.a(lib_a-readr.o) (read)
../lab5_bsp/\libucosii_bsp.a(alt_release_fd.o)
                              ../lab5_bsp/\libucosii_bsp.a(alt_close.o) (alt_release_fd)
../lab5_bsp/\libucosii_bsp.a(alt_sbrk.o)
                              c:/altera/14.1/nios2eds/bin/gnu/h-x86_64-mingw32/bin/../lib/gcc/nios2-elf/4.8.3/../../../../../H-x86_64-mingw32/nios2-elf/lib\libc.a(lib_a-sbrkr.o) (sbrk)
../lab5_bsp/\libucosii_bsp.a(alt_tick.o)
                              obj/default/graphic_lib/simple_graphics.o (_alt_nticks)
../lab5_bsp/\libucosii_bsp.a(alt_write.o)
                              c:/altera/14.1/nios2eds/bin/gnu/h-x86_64-mingw32/bin/../lib/gcc/nios2-elf/4.8.3/../../../../../H-x86_64-mingw32/nios2-elf/lib\libc.a(lib_a-writer.o) (write)
../lab5_bsp/\libucosii_bsp.a(alt_env_lock.o)
                              ../lab5_bsp/\libucosii_bsp.a(alt_main.o) (alt_envsem)
../lab5_bsp/\libucosii_bsp.a(alt_malloc_lock.o)
                              c:/altera/14.1/nios2eds/bin/gnu/h-x86_64-mingw32/bin/../lib/gcc/nios2-elf/4.8.3/../../../../../H-x86_64-mingw32/nios2-elf/lib\libc.a(lib_a-mallocr.o) (__malloc_lock)
../lab5_bsp/\libucosii_bsp.a(os_core.o)
                              ../lab5_bsp/\libucosii_bsp.a(alt_irq_handler.o) (OSIntEnter)
../lab5_bsp/\libucosii_bsp.a(os_dbg.o)
                              ../lab5_bsp/\libucosii_bsp.a(os_core.o) (OSDebugInit)
../lab5_bsp/\libucosii_bsp.a(os_flag.o)
                              ../lab5_bsp/\libucosii_bsp.a(os_core.o) (OS_FlagInit)
../lab5_bsp/\libucosii_bsp.a(os_mem.o)
                              ../lab5_bsp/\libucosii_bsp.a(os_core.o) (OS_MemInit)
../lab5_bsp/\libucosii_bsp.a(os_q.o)
                              ../lab5_bsp/\libucosii_bsp.a(os_core.o) (OS_QInit)
../lab5_bsp/\libucosii_bsp.a(os_sem.o)
                              ../lab5_bsp/\libucosii_bsp.a(alt_main.o) (OSSemCreate)
../lab5_bsp/\libucosii_bsp.a(os_task.o)
                              ../lab5_bsp/\libucosii_bsp.a(os_core.o) (OSTaskNameSet)
../lab5_bsp/\libucosii_bsp.a(os_time.o)
                              ../lab5_bsp/\libucosii_bsp.a(os_core.o) (OSTimeDly)
../lab5_bsp/\libucosii_bsp.a(alt_sys_init.o)
                              ../lab5_bsp/\libucosii_bsp.a(alt_main.o) (alt_irq_init)
../lab5_bsp/\libucosii_bsp.a(altera_avalon_jtag_uart_fd.o)
                              ../lab5_bsp/\libucosii_bsp.a(alt_sys_init.o) (altera_avalon_jtag_uart_read_fd)
../lab5_bsp/\libucosii_bsp.a(altera_avalon_jtag_uart_init.o)
                              ../lab5_bsp/\libucosii_bsp.a(alt_sys_init.o) (altera_avalon_jtag_uart_init)
../lab5_bsp/\libucosii_bsp.a(altera_avalon_jtag_uart_ioctl.o)
                              ../lab5_bsp/\libucosii_bsp.a(altera_avalon_jtag_uart_fd.o) (altera_avalon_jtag_uart_ioctl)
../lab5_bsp/\libucosii_bsp.a(altera_avalon_jtag_uart_read.o)
                              ../lab5_bsp/\libucosii_bsp.a(altera_avalon_jtag_uart_fd.o) (altera_avalon_jtag_uart_read)
../lab5_bsp/\libucosii_bsp.a(altera_avalon_jtag_uart_write.o)
                              ../lab5_bsp/\libucosii_bsp.a(altera_avalon_jtag_uart_fd.o) (altera_avalon_jtag_uart_write)
../lab5_bsp/\libucosii_bsp.a(altera_avalon_timer_sc.o)
                              ../lab5_bsp/\libucosii_bsp.a(alt_sys_init.o) (alt_avalon_timer_sc_init)
../lab5_bsp/\libucosii_bsp.a(alt_alarm_start.o)
                              ../lab5_bsp/\libucosii_bsp.a(altera_avalon_jtag_uart_init.o) (alt_alarm_start)
../lab5_bsp/\libucosii_bsp.a(alt_dev_llist_insert.o)
                              ../lab5_bsp/\libucosii_bsp.a(alt_sys_init.o) (alt_dev_llist_insert)
../lab5_bsp/\libucosii_bsp.a(alt_do_ctors.o)
                              ../lab5_bsp/\libucosii_bsp.a(alt_main.o) (_do_ctors)
../lab5_bsp/\libucosii_bsp.a(alt_do_dtors.o)
                              ../lab5_bsp/\libucosii_bsp.a(alt_main.o) (_do_dtors)
../lab5_bsp/\libucosii_bsp.a(alt_exception_entry.o)
                              ../lab5_bsp/\libucosii_bsp.a(alt_irq_entry.o) (alt_exception)
../lab5_bsp/\libucosii_bsp.a(alt_icache_flush_all.o)
                              ../lab5_bsp/\libucosii_bsp.a(alt_load.o) (alt_icache_flush_all)
../lab5_bsp/\libucosii_bsp.a(alt_io_redirect.o)
                              ../lab5_bsp/\libucosii_bsp.a(alt_main.o) (alt_io_redirect)
../lab5_bsp/\libucosii_bsp.a(alt_open.o)
                              ../lab5_bsp/\libucosii_bsp.a(alt_io_redirect.o) (open)
../lab5_bsp/\libucosii_bsp.a(altera_nios2_qsys_irq.o)
                              ../lab5_bsp/\libucosii_bsp.a(alt_sys_init.o) (altera_nios2_qsys_irq_init)
../lab5_bsp/\libucosii_bsp.a(os_cpu_a.o)
                              ../lab5_bsp/\libucosii_bsp.a(os_core.o) (OSIntCtxSw)
../lab5_bsp/\libucosii_bsp.a(os_cpu_c.o)
                              ../lab5_bsp/\libucosii_bsp.a(os_task.o) (OSTaskStkInit)
../lab5_bsp/\libucosii_bsp.a(alt_find_dev.o)
                              ../lab5_bsp/\libucosii_bsp.a(alt_open.o) (alt_find_dev)
../lab5_bsp/\libucosii_bsp.a(alt_find_file.o)
                              ../lab5_bsp/\libucosii_bsp.a(alt_open.o) (alt_find_file)
../lab5_bsp/\libucosii_bsp.a(alt_get_fd.o)
                              ../lab5_bsp/\libucosii_bsp.a(alt_open.o) (alt_get_fd)
../lab5_bsp/\libucosii_bsp.a(alt_icache_flush.o)
                              ../lab5_bsp/\libucosii_bsp.a(alt_icache_flush_all.o) (alt_icache_flush)
c:/altera/14.1/nios2eds/bin/gnu/h-x86_64-mingw32/bin/../lib/gcc/nios2-elf/4.8.3/../../../../../H-x86_64-mingw32/nios2-elf/lib\libc.a(lib_a-atexit.o)
                              ../lab5_bsp/\libucosii_bsp.a(alt_main.o) (atexit)
c:/altera/14.1/nios2eds/bin/gnu/h-x86_64-mingw32/bin/../lib/gcc/nios2-elf/4.8.3/../../../../../H-x86_64-mingw32/nios2-elf/lib\libc.a(lib_a-exit.o)
                              ../lab5_bsp/\libucosii_bsp.a(alt_main.o) (exit)
c:/altera/14.1/nios2eds/bin/gnu/h-x86_64-mingw32/bin/../lib/gcc/nios2-elf/4.8.3/../../../../../H-x86_64-mingw32/nios2-elf/lib\libc.a(lib_a-memcmp.o)
                              ../lab5_bsp/\libucosii_bsp.a(alt_find_dev.o) (memcmp)
c:/altera/14.1/nios2eds/bin/gnu/h-x86_64-mingw32/bin/../lib/gcc/nios2-elf/4.8.3/../../../../../H-x86_64-mingw32/nios2-elf/lib\libc.a(lib_a-__atexit.o)
                              c:/altera/14.1/nios2eds/bin/gnu/h-x86_64-mingw32/bin/../lib/gcc/nios2-elf/4.8.3/../../../../../H-x86_64-mingw32/nios2-elf/lib\libc.a(lib_a-atexit.o) (__register_exitproc)
c:/altera/14.1/nios2eds/bin/gnu/h-x86_64-mingw32/bin/../lib/gcc/nios2-elf/4.8.3/../../../../../H-x86_64-mingw32/nios2-elf/lib\libc.a(lib_a-__call_atexit.o)
                              c:/altera/14.1/nios2eds/bin/gnu/h-x86_64-mingw32/bin/../lib/gcc/nios2-elf/4.8.3/../../../../../H-x86_64-mingw32/nios2-elf/lib\libc.a(lib_a-exit.o) (__call_exitprocs)
../lab5_bsp/\libucosii_bsp.a(alt_exit.o)
                              c:/altera/14.1/nios2eds/bin/gnu/h-x86_64-mingw32/bin/../lib/gcc/nios2-elf/4.8.3/../../../../../H-x86_64-mingw32/nios2-elf/lib\libc.a(lib_a-exit.o) (_exit)

Allocating common symbols
Common symbol       size              file

alt_irq             0x100             ../lab5_bsp/\libucosii_bsp.a(alt_irq_handler.o)
task1_stk           0x2000            obj/default/hello_ucosii.o
OSLockNesting       0x1               ../lab5_bsp/\libucosii_bsp.a(os_core.o)
OSRunning           0x1               ../lab5_bsp/\libucosii_bsp.a(os_core.o)
OSIdleCtr           0x4               ../lab5_bsp/\libucosii_bsp.a(os_core.o)
OSPrioHighRdy       0x1               ../lab5_bsp/\libucosii_bsp.a(os_core.o)
errno               0x4               c:/altera/14.1/nios2eds/bin/gnu/h-x86_64-mingw32/bin/../lib/gcc/nios2-elf/4.8.3/../../../../../H-x86_64-mingw32/nios2-elf/lib\libc.a(lib_a-int_errno.o)
buttons_control2    0xc               obj/default/hello_ucosii.o
alt_heapsem         0x4               ../lab5_bsp/\libucosii_bsp.a(alt_malloc_lock.o)
OSFlagTbl           0x370             ../lab5_bsp/\libucosii_bsp.a(os_core.o)
OSPrioCur           0x1               ../lab5_bsp/\libucosii_bsp.a(os_core.o)
OSTCBList           0x4               ../lab5_bsp/\libucosii_bsp.a(os_core.o)
alt_fd_list_lock    0x4               ../lab5_bsp/\libucosii_bsp.a(alt_dev.o)
OSMemTbl            0xc30             ../lab5_bsp/\libucosii_bsp.a(os_core.o)
OSTickStepState     0x1               ../lab5_bsp/\libucosii_bsp.a(os_core.o)
OSTaskStatStk       0x800             ../lab5_bsp/\libucosii_bsp.a(os_core.o)
task4_stk           0x2000            obj/default/hello_ucosii.o
OSCtxSwCtr          0x4               ../lab5_bsp/\libucosii_bsp.a(os_core.o)
OSIdleCtrMax        0x4               ../lab5_bsp/\libucosii_bsp.a(os_core.o)
OSTCBFreeList       0x4               ../lab5_bsp/\libucosii_bsp.a(os_core.o)
OSCPUUsage          0x1               ../lab5_bsp/\libucosii_bsp.a(os_core.o)
OSTaskCtr           0x1               ../lab5_bsp/\libucosii_bsp.a(os_core.o)
task6_stk           0x2000            obj/default/hello_ucosii.o
OSMemFreeList       0x4               ../lab5_bsp/\libucosii_bsp.a(os_core.o)
OSQTbl              0x1e0             ../lab5_bsp/\libucosii_bsp.a(os_core.o)
OSTCBHighRdy        0x4               ../lab5_bsp/\libucosii_bsp.a(os_core.o)
OSQFreeList         0x4               ../lab5_bsp/\libucosii_bsp.a(os_core.o)
OSRdyGrp            0x1               ../lab5_bsp/\libucosii_bsp.a(os_core.o)
task2_stk           0x2000            obj/default/hello_ucosii.o
task3_stk           0x2000            obj/default/hello_ucosii.o
OSRdyTbl            0x3               ../lab5_bsp/\libucosii_bsp.a(os_core.o)
OSEventFreeList     0x4               ../lab5_bsp/\libucosii_bsp.a(os_core.o)
SW_Frame            0x4               obj/default/hello_ucosii.o
buttons_control1    0xc               obj/default/hello_ucosii.o
OSIntNesting        0x1               ../lab5_bsp/\libucosii_bsp.a(os_core.o)
OSTCBCur            0x4               ../lab5_bsp/\libucosii_bsp.a(os_core.o)
OSTime              0x4               ../lab5_bsp/\libucosii_bsp.a(os_core.o)
OSTaskIdleStk       0x800             ../lab5_bsp/\libucosii_bsp.a(os_core.o)
OSEventTbl          0xb40             ../lab5_bsp/\libucosii_bsp.a(os_core.o)
OSTCBTbl            0x510             ../lab5_bsp/\libucosii_bsp.a(os_core.o)
OSFlagFreeList      0x4               ../lab5_bsp/\libucosii_bsp.a(os_core.o)
OSStatRdy           0x1               ../lab5_bsp/\libucosii_bsp.a(os_core.o)
OSTCBPrioTbl        0x54              ../lab5_bsp/\libucosii_bsp.a(os_core.o)
task5_stk           0x2000            obj/default/hello_ucosii.o
alt_envsem          0x4               ../lab5_bsp/\libucosii_bsp.a(alt_env_lock.o)
OSIdleCtrRun        0x4               ../lab5_bsp/\libucosii_bsp.a(os_core.o)

Memory Configuration

Name             Origin             Length             Attributes
reset            0x0000000004000000 0x0000000000000020
sdram_BEFORE_EXCEPTION 0x0000000004000020 0x000000000057e400
sdram            0x000000000457e420 0x0000000003a81be0
*default*        0x0000000000000000 0xffffffffffffffff

Linker script and memory map

LOAD ../lab5_bsp//obj/HAL/src/crt0.o
LOAD obj/default/drivers/drivers.o
LOAD obj/default/fonts/tahomabold_20.o
LOAD obj/default/fonts/tahomabold_32.o
LOAD obj/default/frame.o
LOAD obj/default/graphic_lib/draw_gimps.o
LOAD obj/default/graphic_lib/gimp_bmp.o
LOAD obj/default/graphic_lib/simple_graphics.o
LOAD obj/default/graphic_lib/simple_text.o
LOAD obj/default/hello_ucosii.o
LOAD obj/default/imagenes/back_down.o
LOAD obj/default/imagenes/back_up.o
LOAD obj/default/imagenes/ford_down.o
LOAD obj/default/imagenes/ford_up.o
LOAD obj/default/imagenes/pause_down.o
LOAD obj/default/imagenes/pause_up.o
LOAD obj/default/imagenes/play_down.o
LOAD obj/default/imagenes/play_up.o
LOAD obj/default/imagenes/stop_down.o
LOAD obj/default/imagenes/stop_up.o
LOAD obj/default/song/song.o
LOAD obj/default/student_code/student_code.o
LOAD obj/default/vip_fr.o
LOAD c:/altera/14.1/nios2eds/bin/gnu/h-x86_64-mingw32/bin/../lib/gcc/nios2-elf/4.8.3/../../../../../H-x86_64-mingw32/nios2-elf/lib\libstdc++.a
LOAD c:/altera/14.1/nios2eds/bin/gnu/h-x86_64-mingw32/bin/../lib/gcc/nios2-elf/4.8.3/../../../../../H-x86_64-mingw32/nios2-elf/lib\libm.a
LOAD c:/altera/14.1/nios2eds/bin/gnu/h-x86_64-mingw32/bin/../lib/gcc/nios2-elf/4.8.3\libgcc.a
START GROUP
LOAD c:/altera/14.1/nios2eds/bin/gnu/h-x86_64-mingw32/bin/../lib/gcc/nios2-elf/4.8.3/../../../../../H-x86_64-mingw32/nios2-elf/lib\libc.a
LOAD c:/altera/14.1/nios2eds/bin/gnu/h-x86_64-mingw32/bin/../lib/gcc/nios2-elf/4.8.3\libgcc.a
LOAD ../lab5_bsp/\libucosii_bsp.a
LOAD c:/altera/14.1/nios2eds/bin/gnu/h-x86_64-mingw32/bin/../lib/gcc/nios2-elf/4.8.3/../../../../../H-x86_64-mingw32/nios2-elf/lib\libm.a
END GROUP
LOAD c:/altera/14.1/nios2eds/bin/gnu/h-x86_64-mingw32/bin/../lib/gcc/nios2-elf/4.8.3\libgcc.a
                0x0000000004000000                __alt_mem_sdram = 0x4000000

.entry          0x0000000004000000       0x20
 *(.entry)
 .entry         0x0000000004000000       0x20 ../lab5_bsp//obj/HAL/src/crt0.o
                0x0000000004000000                __reset

.exceptions     0x000000000457e420      0x15c
                0x000000000457e420                PROVIDE (__ram_exceptions_start, ABSOLUTE (.))
                0x000000000457e420                . = ALIGN (0x20)
 *(.irq)
 *(.exceptions.entry.label)
 .exceptions.entry.label
                0x000000000457e420        0x0 ../lab5_bsp/\libucosii_bsp.a(alt_irq_entry.o)
                0x000000000457e420                alt_irq_entry
 .exceptions.entry.label
                0x000000000457e420        0x0 ../lab5_bsp/\libucosii_bsp.a(alt_exception_entry.o)
                0x000000000457e420                alt_exception
 *(.exceptions.entry.user)
 *(.exceptions.entry.ecc_fatal)
 *(.exceptions.entry)
 .exceptions.entry
                0x000000000457e420       0x54 ../lab5_bsp/\libucosii_bsp.a(alt_exception_entry.o)
 *(.exceptions.irqtest.user)
 *(.exceptions.irqtest)
 .exceptions.irqtest
                0x000000000457e474       0x10 ../lab5_bsp/\libucosii_bsp.a(alt_irq_entry.o)
 *(.exceptions.irqhandler.user)
 *(.exceptions.irqhandler)
 .exceptions.irqhandler
                0x000000000457e484        0x4 ../lab5_bsp/\libucosii_bsp.a(alt_irq_entry.o)
 *(.exceptions.irqreturn.user)
 *(.exceptions.irqreturn)
 .exceptions.irqreturn
                0x000000000457e488        0x4 ../lab5_bsp/\libucosii_bsp.a(alt_irq_entry.o)
 *(.exceptions.notirq.label)
 .exceptions.notirq.label
                0x000000000457e48c        0x0 ../lab5_bsp/\libucosii_bsp.a(alt_irq_entry.o)
 *(.exceptions.notirq.user)
 *(.exceptions.notirq)
 .exceptions.notirq
                0x000000000457e48c        0x8 ../lab5_bsp/\libucosii_bsp.a(alt_exception_entry.o)
 *(.exceptions.soft.user)
 *(.exceptions.soft)
 *(.exceptions.unknown.user)
 *(.exceptions.unknown)
 .exceptions.unknown
                0x000000000457e494        0x4 ../lab5_bsp/\libucosii_bsp.a(alt_exception_entry.o)
 *(.exceptions.exit.label)
 .exceptions.exit.label
                0x000000000457e498        0x0 ../lab5_bsp/\libucosii_bsp.a(alt_irq_entry.o)
 .exceptions.exit.label
                0x000000000457e498        0x0 ../lab5_bsp/\libucosii_bsp.a(alt_exception_entry.o)
 *(.exceptions.exit.user)
 *(.exceptions.exit)
 .exceptions.exit
                0x000000000457e498       0x54 ../lab5_bsp/\libucosii_bsp.a(alt_exception_entry.o)
 *(.exceptions)
 .exceptions    0x000000000457e4ec       0x90 ../lab5_bsp/\libucosii_bsp.a(alt_irq_handler.o)
                0x000000000457e4ec                alt_irq_handler
                0x000000000457e57c                PROVIDE (__ram_exceptions_end, ABSOLUTE (.))
                0x000000000457e420                PROVIDE (__flash_exceptions_start, LOADADDR (.exceptions))

.text           0x000000000457e57c    0x1902c
                0x000000000457e57c                PROVIDE (stext, ABSOLUTE (.))
 *(.interp)
 *(.hash)
 *(.dynsym)
 *(.dynstr)
 *(.gnu.version)
 *(.gnu.version_d)
 *(.gnu.version_r)
 *(.rel.init)
 *(.rela.init)
 *(.rel.text .rel.text.* .rel.gnu.linkonce.t.*)
 *(.rela.text .rela.text.* .rela.gnu.linkonce.t.*)
 *(.rel.fini)
 *(.rela.fini)
 *(.rel.rodata .rel.rodata.* .rel.gnu.linkonce.r.*)
 *(.rela.rodata .rela.rodata.* .rela.gnu.linkonce.r.*)
 *(.rel.data .rel.data.* .rel.gnu.linkonce.d.*)
 *(.rela.data .rela.data.* .rela.gnu.linkonce.d.*)
 *(.rel.tdata .rel.tdata.* .rel.gnu.linkonce.td.*)
 *(.rela.tdata .rela.tdata.* .rela.gnu.linkonce.td.*)
 *(.rel.tbss .rel.tbss.* .rel.gnu.linkonce.tb.*)
 *(.rela.tbss .rela.tbss.* .rela.gnu.linkonce.tb.*)
 *(.rel.ctors)
 *(.rela.ctors)
 *(.rel.dtors)
 *(.rela.dtors)
 *(.rel.got)
 *(.rela.got)
 *(.rel.sdata .rel.sdata.* .rel.gnu.linkonce.s.*)
 *(.rela.sdata .rela.sdata.* .rela.gnu.linkonce.s.*)
 *(.rel.sbss .rel.sbss.* .rel.gnu.linkonce.sb.*)
 *(.rela.sbss .rela.sbss.* .rela.gnu.linkonce.sb.*)
 *(.rel.sdata2 .rel.sdata2.* .rel.gnu.linkonce.s2.*)
 *(.rela.sdata2 .rela.sdata2.* .rela.gnu.linkonce.s2.*)
 *(.rel.sbss2 .rel.sbss2.* .rel.gnu.linkonce.sb2.*)
 *(.rela.sbss2 .rela.sbss2.* .rela.gnu.linkonce.sb2.*)
 *(.rel.bss .rel.bss.* .rel.gnu.linkonce.b.*)
 *(.rela.bss .rela.bss.* .rela.gnu.linkonce.b.*)
 *(.rel.plt)
 *(.rela.plt)
 *(.rel.dyn)
 *(.init)
 *(.plt)
 *(.text .stub .text.* .gnu.linkonce.t.*)
 .text          0x000000000457e57c       0x4c ../lab5_bsp//obj/HAL/src/crt0.o
                0x000000000457e57c                _start
 .text          0x000000000457e5c8     0x182c obj/default/drivers/drivers.o
                0x000000000457e5c8                audio_dac_wr_fifo
                0x000000000457e63c                stop_wav
                0x000000000457e660                play_wav
                0x000000000457e67c                pause_wav
                0x000000000457e694                audio_dac_fifo_full
                0x000000000457e6a8                init_audio_hw
                0x000000000457e6e4                set_audio_frequency_audio_controller
                0x000000000457e71c                set_note
                0x000000000457e754                select_modulation
                0x000000000457e768                select_signal
                0x000000000457e77c                audio_selector
                0x000000000457e790                read_keyboard
                0x000000000457e7a0                mouse_pos
                0x000000000457e854                Sleep
                0x000000000457e8a0                Beep
                0x000000000457e8dc                starwars
                0x000000000457ea3c                gloria
                0x000000000457ef20                mario
                0x000000000457f7c0                tetris
 .text          0x000000000457fdf4        0x0 obj/default/fonts/tahomabold_20.o
 .text          0x000000000457fdf4        0x0 obj/default/fonts/tahomabold_32.o
 .text          0x000000000457fdf4      0x120 obj/default/frame.o
                0x000000000457fdf4                ConfigVFR
                0x000000000457feb4                GetFrameBuffer
                0x000000000457fed0                cleanscreen
 .text          0x000000000457ff14      0x55c obj/default/graphic_lib/draw_gimps.o
                0x000000000457ff14                AsVidCopyImageToBuffer
                0x000000000457ffec                AsVidCopyImageToBuffer2
                0x00000000045800e8                AsVidCopyImageToBuffer3
                0x0000000004580208                DispIMAGE
                0x00000000045802b8                DispIMAGE_fit
                0x00000000045803a4                DispIMAGE_from_gimp
 .text          0x0000000004580470      0x508 obj/default/graphic_lib/gimp_bmp.o
                0x0000000004580470                copy_pix_map_32_to_32
                0x00000000045804e0                copy_pix_map_32_to_24
                0x0000000004580560                copy_pix_map_32_to_16
                0x00000000045805e8                copy_pix_map_24_to_32
                0x0000000004580670                copy_pix_map_24_to_24
                0x00000000045806f0                copy_pix_map_24_to_16
                0x0000000004580798                load_gimp_bmp
 .text          0x0000000004580978     0x1ff0 obj/default/graphic_lib/simple_graphics.o
                0x0000000004580978                vid_scroll_string_quit
                0x00000000045809a8                vid_scroll_string_init
                0x0000000004580a94                vid_set_pixel
                0x0000000004580b88                vid_print_char
                0x0000000004580c70                vid_print_string
                0x0000000004580d48                vid_get_pixel
                0x0000000004580da4                vid_move_block
                0x0000000004580ea8                vid_paint_block
                0x0000000004581028                vid_clean_screen
                0x0000000004581058                vid_draw_horiz_line
                0x000000000458128c                vid_merge_colors
                0x00000000045812a8                vid_color_convert24_16
                0x00000000045812dc                vid_color_convert16_24
                0x0000000004581304                vid_copy_line_to_frame_buffer
                0x00000000045814bc                vid_draw_sloped_line
                0x0000000004581648                vid_draw_line
                0x00000000045816c4                vid_draw_box
                0x000000000458183c                vid_scroll_string
                0x0000000004581a6c                vid_round_corner_points
                0x0000000004581ee8                vid_draw_circle
                0x0000000004582000                vid_draw_round_corner_box
                0x00000000045822f0                max3
                0x0000000004582308                min3
                0x0000000004582320                max_diff3
                0x000000000458234c                vid_put_pixel_in_span_map
                0x0000000004582390                vid_bres_scan_edges
                0x00000000045824d8                vid_draw_triangle
                0x00000000045827ac                CopyImage16
                0x000000000458286c                CropImage16
 .text          0x0000000004582968      0xb48 obj/default/graphic_lib/simple_text.o
                0x0000000004582968                seperate_color_channels
                0x00000000045829f8                merge_color_channels
                0x0000000004582a70                read_from_frame
                0x0000000004582bc4                alpha_blending
                0x0000000004582e70                vid_print_char_alpha
                0x0000000004583298                vid_print_string_alpha
                0x0000000004583434                vid_string_pixel_length_alpha
 .text          0x00000000045834b0     0x13a4 obj/default/hello_ucosii.o
                0x00000000045834b0                draw_button
                0x000000000458362c                task2
                0x0000000004584288                init_background
                0x0000000004584654                send_audio_fifo
                0x00000000045846d0                task1
                0x0000000004584774                main
 .text          0x0000000004584854        0x0 obj/default/imagenes/back_down.o
 .text          0x0000000004584854        0x0 obj/default/imagenes/back_up.o
 .text          0x0000000004584854        0x0 obj/default/imagenes/ford_down.o
 .text          0x0000000004584854        0x0 obj/default/imagenes/ford_up.o
 .text          0x0000000004584854        0x0 obj/default/imagenes/pause_down.o
 .text          0x0000000004584854        0x0 obj/default/imagenes/pause_up.o
 .text          0x0000000004584854        0x0 obj/default/imagenes/play_down.o
 .text          0x0000000004584854        0x0 obj/default/imagenes/play_up.o
 .text          0x0000000004584854        0x0 obj/default/imagenes/stop_down.o
 .text          0x0000000004584854        0x0 obj/default/imagenes/stop_up.o
 .text          0x0000000004584854        0x0 obj/default/song/song.o
 .text          0x0000000004584854       0x4c obj/default/student_code/student_code.o
                0x0000000004584854                handle_lfsr_interrupts
                0x0000000004584858                init_lfsr_interrupt
 .text          0x00000000045848a0      0x2bc obj/default/vip_fr.o
                0x00000000045848a0                VIPFR_UnInit
                0x00000000045848bc                VIPFR_Go
                0x00000000045848cc                VIPFR_GetDrawFrame
                0x00000000045848e4                VIPFR_ActiveDrawFrame
                0x000000000458492c                DRAW_EraseScreen
                0x000000000458497c                FrameReader_SetFrame0
                0x00000000045849a4                FrameReader_SetFrame1
                0x00000000045849cc                VIPFR_SetFrameSize
                0x0000000004584a54                VIPFR_Init
                0x0000000004584af8                FrameReader_SelectFrame
                0x0000000004584b04                FrameReader_Go
                0x0000000004584b10                VIPFR_ReserveBackground
 .text          0x0000000004584b5c      0x114 c:/altera/14.1/nios2eds/bin/gnu/h-x86_64-mingw32/bin/../lib/gcc/nios2-elf/4.8.3\libgcc.a(lib2-divmod.o)
                0x0000000004584bcc                __divsi3
                0x0000000004584c14                __modsi3
                0x0000000004584c60                __udivsi3
                0x0000000004584c68                __umodsi3
 .text          0x0000000004584c70       0x70 c:/altera/14.1/nios2eds/bin/gnu/h-x86_64-mingw32/bin/../lib/gcc/nios2-elf/4.8.3\libgcc.a(fixsfsi.o)
                0x0000000004584c70                __fixsfsi
 .text          0x0000000004584ce0       0x28 c:/altera/14.1/nios2eds/bin/gnu/h-x86_64-mingw32/bin/../lib/gcc/nios2-elf/4.8.3/../../../../../H-x86_64-mingw32/nios2-elf/lib\libc.a(lib_a-malloc.o)
                0x0000000004584ce0                malloc
                0x0000000004584cf4                free
 .text          0x0000000004584d08      0x7c4 c:/altera/14.1/nios2eds/bin/gnu/h-x86_64-mingw32/bin/../lib/gcc/nios2-elf/4.8.3/../../../../../H-x86_64-mingw32/nios2-elf/lib\libc.a(lib_a-mallocr.o)
                0x0000000004584d08                _malloc_r
 .text          0x00000000045854cc      0x10c c:/altera/14.1/nios2eds/bin/gnu/h-x86_64-mingw32/bin/../lib/gcc/nios2-elf/4.8.3/../../../../../H-x86_64-mingw32/nios2-elf/lib\libc.a(lib_a-memcpy.o)
                0x00000000045854cc                memcpy
 .text          0x00000000045855d8      0x114 c:/altera/14.1/nios2eds/bin/gnu/h-x86_64-mingw32/bin/../lib/gcc/nios2-elf/4.8.3/../../../../../H-x86_64-mingw32/nios2-elf/lib\libc.a(lib_a-memset.o)
                0x00000000045855d8                memset
 .text          0x00000000045856ec       0x68 c:/altera/14.1/nios2eds/bin/gnu/h-x86_64-mingw32/bin/../lib/gcc/nios2-elf/4.8.3/../../../../../H-x86_64-mingw32/nios2-elf/lib\libc.a(lib_a-printf.o)
                0x00000000045856ec                _printf_r
                0x0000000004585718                printf
 .text          0x0000000004585754       0x64 c:/altera/14.1/nios2eds/bin/gnu/h-x86_64-mingw32/bin/../lib/gcc/nios2-elf/4.8.3/../../../../../H-x86_64-mingw32/nios2-elf/lib\libc.a(lib_a-sbrkr.o)
                0x0000000004585754                _sbrk_r
 .text          0x00000000045857b8       0x88 c:/altera/14.1/nios2eds/bin/gnu/h-x86_64-mingw32/bin/../lib/gcc/nios2-elf/4.8.3/../../../../../H-x86_64-mingw32/nios2-elf/lib\libc.a(lib_a-strcpy.o)
                0x00000000045857b8                strcpy
 .text          0x0000000004585840       0x8c c:/altera/14.1/nios2eds/bin/gnu/h-x86_64-mingw32/bin/../lib/gcc/nios2-elf/4.8.3/../../../../../H-x86_64-mingw32/nios2-elf/lib\libc.a(lib_a-strlen.o)
                0x0000000004585840                strlen
 .text          0x00000000045858cc     0x2000 c:/altera/14.1/nios2eds/bin/gnu/h-x86_64-mingw32/bin/../lib/gcc/nios2-elf/4.8.3/../../../../../H-x86_64-mingw32/nios2-elf/lib\libc.a(lib_a-vfprintf.o)
                0x00000000045858cc                ___vfprintf_internal_r
                0x00000000045878a8                __vfprintf_internal
 .text          0x00000000045878cc      0x138 c:/altera/14.1/nios2eds/bin/gnu/h-x86_64-mingw32/bin/../lib/gcc/nios2-elf/4.8.3/../../../../../H-x86_64-mingw32/nios2-elf/lib\libc.a(lib_a-wsetup.o)
                0x00000000045878cc                __swsetup_r
 .text          0x0000000004587a04     0x1840 c:/altera/14.1/nios2eds/bin/gnu/h-x86_64-mingw32/bin/../lib/gcc/nios2-elf/4.8.3/../../../../../H-x86_64-mingw32/nios2-elf/lib\libc.a(lib_a-dtoa.o)
                0x0000000004587c08                _dtoa_r
 .text          0x0000000004589244      0x274 c:/altera/14.1/nios2eds/bin/gnu/h-x86_64-mingw32/bin/../lib/gcc/nios2-elf/4.8.3/../../../../../H-x86_64-mingw32/nios2-elf/lib\libc.a(lib_a-fflush.o)
                0x0000000004589244                _fflush_r
                0x0000000004589488                fflush
 .text          0x00000000045894b8      0x390 c:/altera/14.1/nios2eds/bin/gnu/h-x86_64-mingw32/bin/../lib/gcc/nios2-elf/4.8.3/../../../../../H-x86_64-mingw32/nios2-elf/lib\libc.a(lib_a-findfp.o)
                0x00000000045894c8                _cleanup_r
                0x00000000045894d4                __sfmoreglue
                0x0000000004589538                _cleanup
                0x0000000004589550                __sinit
                0x00000000045896ec                __sfp
                0x0000000004589808                __sfp_lock_acquire
                0x000000000458980c                __sfp_lock_release
                0x0000000004589810                __sinit_lock_acquire
                0x0000000004589814                __sinit_lock_release
                0x0000000004589818                __fp_lock_all
                0x0000000004589830                __fp_unlock_all
 .text          0x0000000004589848      0x40c c:/altera/14.1/nios2eds/bin/gnu/h-x86_64-mingw32/bin/../lib/gcc/nios2-elf/4.8.3/../../../../../H-x86_64-mingw32/nios2-elf/lib\libc.a(lib_a-freer.o)
                0x0000000004589848                _malloc_trim_r
                0x0000000004589984                _free_r
 .text          0x0000000004589c54      0x160 c:/altera/14.1/nios2eds/bin/gnu/h-x86_64-mingw32/bin/../lib/gcc/nios2-elf/4.8.3/../../../../../H-x86_64-mingw32/nios2-elf/lib\libc.a(lib_a-fwalk.o)
                0x0000000004589c54                _fwalk
                0x0000000004589cfc                _fwalk_reent
 .text          0x0000000004589db4        0x0 c:/altera/14.1/nios2eds/bin/gnu/h-x86_64-mingw32/bin/../lib/gcc/nios2-elf/4.8.3/../../../../../H-x86_64-mingw32/nios2-elf/lib\libc.a(lib_a-impure.o)
 .text          0x0000000004589db4        0x0 c:/altera/14.1/nios2eds/bin/gnu/h-x86_64-mingw32/bin/../lib/gcc/nios2-elf/4.8.3/../../../../../H-x86_64-mingw32/nios2-elf/lib\libc.a(lib_a-int_errno.o)
 .text          0x0000000004589db4       0xd4 c:/altera/14.1/nios2eds/bin/gnu/h-x86_64-mingw32/bin/../lib/gcc/nios2-elf/4.8.3/../../../../../H-x86_64-mingw32/nios2-elf/lib\libc.a(lib_a-locale.o)
                0x0000000004589db4                _setlocale_r
                0x0000000004589e24                __locale_charset
                0x0000000004589e30                __locale_mb_cur_max
                0x0000000004589e40                __locale_msgcharset
                0x0000000004589e4c                __locale_cjk_lang
                0x0000000004589e54                _localeconv_r
                0x0000000004589e60                setlocale
                0x0000000004589e7c                localeconv
 .text          0x0000000004589e88      0x1b4 c:/altera/14.1/nios2eds/bin/gnu/h-x86_64-mingw32/bin/../lib/gcc/nios2-elf/4.8.3/../../../../../H-x86_64-mingw32/nios2-elf/lib\libc.a(lib_a-makebuf.o)
                0x0000000004589e88                __smakebuf_r
 .text          0x000000000458a03c       0xe8 c:/altera/14.1/nios2eds/bin/gnu/h-x86_64-mingw32/bin/../lib/gcc/nios2-elf/4.8.3/../../../../../H-x86_64-mingw32/nios2-elf/lib\libc.a(lib_a-memchr.o)
                0x000000000458a03c                memchr
 .text          0x000000000458a124      0xf78 c:/altera/14.1/nios2eds/bin/gnu/h-x86_64-mingw32/bin/../lib/gcc/nios2-elf/4.8.3/../../../../../H-x86_64-mingw32/nios2-elf/lib\libc.a(lib_a-mprec.o)
                0x000000000458a124                _Balloc
                0x000000000458a1cc                _Bfree
                0x000000000458a1f4                __multadd
                0x000000000458a308                __s2b
                0x000000000458a40c                __hi0bits
                0x000000000458a474                __lo0bits
                0x000000000458a524                __i2b
                0x000000000458a560                __multiply
                0x000000000458a74c                __pow5mult
                0x000000000458a894                __lshift
                0x000000000458a9e4                __mcmp
                0x000000000458aa44                __mdiff
                0x000000000458abf4                __ulp
                0x000000000458ac54                __b2d
                0x000000000458ad44                __d2b
                0x000000000458ae88                __ratio
                0x000000000458af28                _mprec_log10
                0x000000000458af9c                __copybits
                0x000000000458b014                __any_on
 .text          0x000000000458b09c       0x68 c:/altera/14.1/nios2eds/bin/gnu/h-x86_64-mingw32/bin/../lib/gcc/nios2-elf/4.8.3/../../../../../H-x86_64-mingw32/nios2-elf/lib\libc.a(lib_a-s_fpclassify.o)
                0x000000000458b09c                __fpclassifyd
 .text          0x000000000458b104      0x13c c:/altera/14.1/nios2eds/bin/gnu/h-x86_64-mingw32/bin/../lib/gcc/nios2-elf/4.8.3/../../../../../H-x86_64-mingw32/nios2-elf/lib\libc.a(lib_a-stdio.o)
                0x000000000458b104                __sread
                0x000000000458b158                __seofread
                0x000000000458b160                __swrite
                0x000000000458b1dc                __sseek
                0x000000000458b238                __sclose
 .text          0x000000000458b240       0xa4 c:/altera/14.1/nios2eds/bin/gnu/h-x86_64-mingw32/bin/../lib/gcc/nios2-elf/4.8.3/../../../../../H-x86_64-mingw32/nios2-elf/lib\libc.a(lib_a-strcmp.o)
                0x000000000458b240                strcmp
 .text          0x000000000458b2e4     0x13a8 c:/altera/14.1/nios2eds/bin/gnu/h-x86_64-mingw32/bin/../lib/gcc/nios2-elf/4.8.3/../../../../../H-x86_64-mingw32/nios2-elf/lib\libc.a(lib_a-vfiprintf.o)
                0x000000000458b3e0                __sprint_r
                0x000000000458b3f8                ___vfiprintf_internal_r
                0x000000000458c668                __vfiprintf_internal
 .text          0x000000000458c68c       0x6c c:/altera/14.1/nios2eds/bin/gnu/h-x86_64-mingw32/bin/../lib/gcc/nios2-elf/4.8.3/../../../../../H-x86_64-mingw32/nios2-elf/lib\libc.a(lib_a-writer.o)
                0x000000000458c68c                _write_r
 .text          0x000000000458c6f8       0x64 c:/altera/14.1/nios2eds/bin/gnu/h-x86_64-mingw32/bin/../lib/gcc/nios2-elf/4.8.3/../../../../../H-x86_64-mingw32/nios2-elf/lib\libc.a(closer.o)
                0x000000000458c6f8                _close_r
 .text          0x000000000458c75c       0xc4 c:/altera/14.1/nios2eds/bin/gnu/h-x86_64-mingw32/bin/../lib/gcc/nios2-elf/4.8.3/../../../../../H-x86_64-mingw32/nios2-elf/lib\libc.a(lib_a-callocr.o)
                0x000000000458c75c                _calloc_r
 .text          0x000000000458c820      0x13c c:/altera/14.1/nios2eds/bin/gnu/h-x86_64-mingw32/bin/../lib/gcc/nios2-elf/4.8.3/../../../../../H-x86_64-mingw32/nios2-elf/lib\libc.a(lib_a-fclose.o)
                0x000000000458c820                _fclose_r
                0x000000000458c948                fclose
 .text          0x000000000458c95c      0x1fc c:/altera/14.1/nios2eds/bin/gnu/h-x86_64-mingw32/bin/../lib/gcc/nios2-elf/4.8.3/../../../../../H-x86_64-mingw32/nios2-elf/lib\libc.a(lib_a-fputwc.o)
                0x000000000458c95c                _fputwc_r
                0x000000000458cae0                fputwc
 .text          0x000000000458cb58       0x68 c:/altera/14.1/nios2eds/bin/gnu/h-x86_64-mingw32/bin/../lib/gcc/nios2-elf/4.8.3/../../../../../H-x86_64-mingw32/nios2-elf/lib\libc.a(lib_a-fstatr.o)
                0x000000000458cb58                _fstat_r
 .text          0x000000000458cbc0      0x4ac c:/altera/14.1/nios2eds/bin/gnu/h-x86_64-mingw32/bin/../lib/gcc/nios2-elf/4.8.3/../../../../../H-x86_64-mingw32/nios2-elf/lib\libc.a(lib_a-fvwrite.o)
                0x000000000458cbc0                __sfvwrite_r
 .text          0x000000000458d06c       0x64 c:/altera/14.1/nios2eds/bin/gnu/h-x86_64-mingw32/bin/../lib/gcc/nios2-elf/4.8.3/../../../../../H-x86_64-mingw32/nios2-elf/lib\libc.a(lib_a-isattyr.o)
                0x000000000458d06c                _isatty_r
 .text          0x000000000458d0d0       0x6c c:/altera/14.1/nios2eds/bin/gnu/h-x86_64-mingw32/bin/../lib/gcc/nios2-elf/4.8.3/../../../../../H-x86_64-mingw32/nios2-elf/lib\libc.a(lib_a-lseekr.o)
                0x000000000458d0d0                _lseek_r
 .text          0x000000000458d13c      0x13c c:/altera/14.1/nios2eds/bin/gnu/h-x86_64-mingw32/bin/../lib/gcc/nios2-elf/4.8.3/../../../../../H-x86_64-mingw32/nios2-elf/lib\libc.a(lib_a-memmove.o)
                0x000000000458d13c                memmove
 .text          0x000000000458d278       0x6c c:/altera/14.1/nios2eds/bin/gnu/h-x86_64-mingw32/bin/../lib/gcc/nios2-elf/4.8.3/../../../../../H-x86_64-mingw32/nios2-elf/lib\libc.a(lib_a-readr.o)
                0x000000000458d278                _read_r
 .text          0x000000000458d2e4      0x564 c:/altera/14.1/nios2eds/bin/gnu/h-x86_64-mingw32/bin/../lib/gcc/nios2-elf/4.8.3/../../../../../H-x86_64-mingw32/nios2-elf/lib\libc.a(lib_a-reallocr.o)
                0x000000000458d2e4                _realloc_r
 .text          0x000000000458d848      0x19c c:/altera/14.1/nios2eds/bin/gnu/h-x86_64-mingw32/bin/../lib/gcc/nios2-elf/4.8.3/../../../../../H-x86_64-mingw32/nios2-elf/lib\libc.a(lib_a-wbuf.o)
                0x000000000458d848                __swbuf_r
                0x000000000458d9c8                __swbuf
 .text          0x000000000458d9e4      0x174 c:/altera/14.1/nios2eds/bin/gnu/h-x86_64-mingw32/bin/../lib/gcc/nios2-elf/4.8.3/../../../../../H-x86_64-mingw32/nios2-elf/lib\libc.a(lib_a-wcrtomb.o)
                0x000000000458d9e4                _wcrtomb_r
                0x000000000458da80                wcrtomb
 .text          0x000000000458db58       0x8c c:/altera/14.1/nios2eds/bin/gnu/h-x86_64-mingw32/bin/../lib/gcc/nios2-elf/4.8.3/../../../../../H-x86_64-mingw32/nios2-elf/lib\libc.a(lib_a-wctomb_r.o)
                0x000000000458db58                __ascii_wctomb
                0x000000000458db88                _wctomb_r
 .text          0x000000000458dbe4      0x5c4 c:/altera/14.1/nios2eds/bin/gnu/h-x86_64-mingw32/bin/../lib/gcc/nios2-elf/4.8.3\libgcc.a(_udivdi3.o)
                0x000000000458dbe4                __udivdi3
 .text          0x000000000458e1a8      0x598 c:/altera/14.1/nios2eds/bin/gnu/h-x86_64-mingw32/bin/../lib/gcc/nios2-elf/4.8.3\libgcc.a(_umoddi3.o)
                0x000000000458e1a8                __umoddi3
 .text          0x000000000458e740      0x87c c:/altera/14.1/nios2eds/bin/gnu/h-x86_64-mingw32/bin/../lib/gcc/nios2-elf/4.8.3\libgcc.a(adddf3.o)
                0x000000000458e740                __adddf3
 .text          0x000000000458efbc      0x8d4 c:/altera/14.1/nios2eds/bin/gnu/h-x86_64-mingw32/bin/../lib/gcc/nios2-elf/4.8.3\libgcc.a(divdf3.o)
                0x000000000458efbc                __divdf3
 .text          0x000000000458f890       0x84 c:/altera/14.1/nios2eds/bin/gnu/h-x86_64-mingw32/bin/../lib/gcc/nios2-elf/4.8.3\libgcc.a(eqdf2.o)
                0x000000000458f890                __nedf2
                0x000000000458f890                __eqdf2
 .text          0x000000000458f914       0xd8 c:/altera/14.1/nios2eds/bin/gnu/h-x86_64-mingw32/bin/../lib/gcc/nios2-elf/4.8.3\libgcc.a(gedf2.o)
                0x000000000458f914                __gedf2
                0x000000000458f914                __gtdf2
 .text          0x000000000458f9ec       0xec c:/altera/14.1/nios2eds/bin/gnu/h-x86_64-mingw32/bin/../lib/gcc/nios2-elf/4.8.3\libgcc.a(ledf2.o)
                0x000000000458f9ec                __ledf2
                0x000000000458f9ec                __ltdf2
 .text          0x000000000458fad8      0x6ec c:/altera/14.1/nios2eds/bin/gnu/h-x86_64-mingw32/bin/../lib/gcc/nios2-elf/4.8.3\libgcc.a(muldf3.o)
                0x000000000458fad8                __muldf3
 .text          0x00000000045901c4      0x888 c:/altera/14.1/nios2eds/bin/gnu/h-x86_64-mingw32/bin/../lib/gcc/nios2-elf/4.8.3\libgcc.a(subdf3.o)
                0x00000000045901c4                __subdf3
 .text          0x0000000004590a4c       0x80 c:/altera/14.1/nios2eds/bin/gnu/h-x86_64-mingw32/bin/../lib/gcc/nios2-elf/4.8.3\libgcc.a(fixdfsi.o)
                0x0000000004590a4c                __fixdfsi
 .text          0x0000000004590acc       0xd0 c:/altera/14.1/nios2eds/bin/gnu/h-x86_64-mingw32/bin/../lib/gcc/nios2-elf/4.8.3\libgcc.a(floatsidf.o)
                0x0000000004590acc                __floatsidf
 .text          0x0000000004590b9c       0xa0 c:/altera/14.1/nios2eds/bin/gnu/h-x86_64-mingw32/bin/../lib/gcc/nios2-elf/4.8.3\libgcc.a(floatunsidf.o)
                0x0000000004590b9c                __floatunsidf
 .text          0x0000000004590c3c        0x0 c:/altera/14.1/nios2eds/bin/gnu/h-x86_64-mingw32/bin/../lib/gcc/nios2-elf/4.8.3\libgcc.a(_clz.o)
 .text          0x0000000004590c3c       0xac c:/altera/14.1/nios2eds/bin/gnu/h-x86_64-mingw32/bin/../lib/gcc/nios2-elf/4.8.3\libgcc.a(_clzsi2.o)
                0x0000000004590c3c                __clzsi2
 .text          0x0000000004590ce8       0xcc ../lab5_bsp/\libucosii_bsp.a(alt_close.o)
                0x0000000004590ce8                close
 .text          0x0000000004590db4       0x18 ../lab5_bsp/\libucosii_bsp.a(alt_dcache_flush_all.o)
                0x0000000004590db4                alt_dcache_flush_all
 .text          0x0000000004590dcc        0x8 ../lab5_bsp/\libucosii_bsp.a(alt_dev.o)
 .text          0x0000000004590dd4        0x0 ../lab5_bsp/\libucosii_bsp.a(alt_errno.o)
 .text          0x0000000004590dd4       0x78 ../lab5_bsp/\libucosii_bsp.a(alt_fstat.o)
                0x0000000004590dd4                fstat
 .text          0x0000000004590e4c       0xb8 ../lab5_bsp/\libucosii_bsp.a(alt_iic.o)
                0x0000000004590e4c                alt_ic_isr_register
                0x0000000004590e6c                alt_ic_irq_enable
                0x0000000004590eac                alt_ic_irq_disable
                0x0000000004590eec                alt_ic_irq_enabled
 .text          0x0000000004590f04       0x6c ../lab5_bsp/\libucosii_bsp.a(alt_iic_isr_register.o)
                0x0000000004590f04                alt_iic_isr_register
 .text          0x0000000004590f70        0x0 ../lab5_bsp/\libucosii_bsp.a(alt_irq_entry.o)
 .text          0x0000000004590f70        0x0 ../lab5_bsp/\libucosii_bsp.a(alt_irq_handler.o)
 .text          0x0000000004590f70        0x0 ../lab5_bsp/\libucosii_bsp.a(alt_irq_vars.o)
 .text          0x0000000004590f70       0x7c ../lab5_bsp/\libucosii_bsp.a(alt_isatty.o)
                0x0000000004590f70                isatty
 .text          0x0000000004590fec      0x154 ../lab5_bsp/\libucosii_bsp.a(alt_load.o)
                0x0000000004590fec                alt_load
 .text          0x0000000004591140       0x8c ../lab5_bsp/\libucosii_bsp.a(alt_lseek.o)
                0x0000000004591140                lseek
 .text          0x00000000045911cc       0xa8 ../lab5_bsp/\libucosii_bsp.a(alt_main.o)
                0x00000000045911cc                alt_main
 .text          0x0000000004591274       0xe4 ../lab5_bsp/\libucosii_bsp.a(alt_read.o)
                0x0000000004591274                read
 .text          0x0000000004591358       0x24 ../lab5_bsp/\libucosii_bsp.a(alt_release_fd.o)
                0x0000000004591358                alt_release_fd
 .text          0x000000000459137c       0x4c ../lab5_bsp/\libucosii_bsp.a(alt_sbrk.o)
                0x000000000459137c                sbrk
 .text          0x00000000045913c8       0xfc ../lab5_bsp/\libucosii_bsp.a(alt_tick.o)
                0x00000000045913c8                alt_alarm_stop
                0x0000000004591400                alt_tick
 .text          0x00000000045914c4       0xe0 ../lab5_bsp/\libucosii_bsp.a(alt_write.o)
                0x00000000045914c4                write
 .text          0x00000000045915a4       0xb8 ../lab5_bsp/\libucosii_bsp.a(alt_env_lock.o)
                0x00000000045915a4                __env_lock
                0x0000000004591624                __env_unlock
 .text          0x000000000459165c      0x120 ../lab5_bsp/\libucosii_bsp.a(alt_malloc_lock.o)
                0x000000000459165c                __malloc_lock
                0x0000000004591708                __malloc_unlock
 .text          0x000000000459177c     0x11e4 ../lab5_bsp/\libucosii_bsp.a(os_core.o)
                0x00000000045917b8                OS_TaskIdle
                0x00000000045917ec                OSIntEnter
                0x0000000004591828                OSIntExit
                0x00000000045918d4                OSSchedLock
                0x0000000004591918                OSStart
                0x0000000004591968                OSStatInit
                0x00000000045919c8                OSTimeTick
                0x0000000004591ae8                OSVersion
                0x0000000004591af0                OS_Dummy
                0x0000000004591af4                OS_EventTaskWait
                0x0000000004591b64                OS_EventTaskWaitMulti
                0x0000000004591bec                OS_EventTaskRemove
                0x0000000004591c28                OS_EventTaskRemoveMulti
                0x0000000004591c7c                OS_EventTaskRdy
                0x0000000004591d6c                OS_EventWaitListInit
                0x0000000004591d80                OS_MemClr
                0x0000000004591dac                OSInit
                0x0000000004591fcc                OS_MemCopy
                0x0000000004592000                OS_Sched
                0x000000000459208c                OSEventPendMulti
                0x0000000004592430                OSSchedUnlock
                0x00000000045924a8                OS_StrCopy
                0x00000000045924f0                OSEventNameGet
                0x00000000045925ac                OS_StrLen
                0x00000000045925d4                OSEventNameSet
                0x00000000045926b0                OS_TaskStatStkChk
                0x0000000004592744                OS_TaskStat
                0x00000000045927dc                OS_TCBInit
 .text          0x0000000004592960        0x4 ../lab5_bsp/\libucosii_bsp.a(os_dbg.o)
                0x0000000004592960                OSDebugInit
 .text          0x0000000004592964      0xde0 ../lab5_bsp/\libucosii_bsp.a(os_flag.o)
                0x0000000004592a10                OSFlagAccept
                0x0000000004592ba4                OSFlagCreate
                0x0000000004592c3c                OSFlagNameGet
                0x0000000004592d00                OSFlagNameSet
                0x0000000004592de4                OSFlagPendGetFlagsRdy
                0x0000000004592e0c                OSFlagQuery
                0x0000000004592e68                OS_FlagInit
                0x0000000004592efc                OS_FlagUnlink
                0x0000000004592fc4                OSFlagDel
                0x000000000459313c                OSFlagPost
                0x000000000459339c                OSFlagPend
 .text          0x0000000004593744      0x448 ../lab5_bsp/\libucosii_bsp.a(os_mem.o)
                0x0000000004593744                OSMemCreate
                0x000000000459385c                OSMemGet
                0x00000000045938c8                OSMemNameGet
                0x000000000459396c                OSMemNameSet
                0x0000000004593a34                OSMemPut
                0x0000000004593a98                OSMemQuery
                0x0000000004593b04                OS_MemInit
 .text          0x0000000004593b8c      0xa78 ../lab5_bsp/\libucosii_bsp.a(os_q.o)
                0x0000000004593b8c                OSQAccept
                0x0000000004593c2c                OSQCreate
                0x0000000004593d3c                OSQDel
                0x0000000004593ef0                OSQFlush
                0x0000000004593f40                OSQPend
                0x00000000045940f8                OSQPendAbort
                0x000000000459420c                OSQPost
                0x00000000045942d4                OSQPostFront
                0x000000000459439c                OSQPostOpt
                0x0000000004594504                OSQQuery
                0x00000000045945a4                OS_QInit
 .text          0x0000000004594604      0x66c ../lab5_bsp/\libucosii_bsp.a(os_sem.o)
                0x0000000004594604                OSSemAccept
                0x0000000004594650                OSSemCreate
                0x00000000045946e4                OSSemDel
                0x0000000004594868                OSSemPend
                0x00000000045949d0                OSSemPendAbort
                0x0000000004594ae4                OSSemPost
                0x0000000004594b88                OSSemQuery
                0x0000000004594c00                OSSemSet
 .text          0x0000000004594c70      0xfac ../lab5_bsp/\libucosii_bsp.a(os_task.o)
                0x0000000004594c70                OSTaskChangePrio
                0x0000000004594f28                OSTaskCreate
                0x000000000459504c                OSTaskDel
                0x00000000045952e8                OSTaskDelReq
                0x00000000045953b8                OSTaskNameGet
                0x00000000045954d4                OSTaskNameSet
                0x000000000459560c                OSTaskResume
                0x0000000004595738                OSTaskStkChk
                0x0000000004595840                OSTaskSuspend
                0x00000000045959a4                OSTaskQuery
                0x0000000004595a70                OS_TaskStkClr
                0x0000000004595a94                OSTaskCreateExt
 .text          0x0000000004595c1c      0x320 ../lab5_bsp/\libucosii_bsp.a(os_time.o)
                0x0000000004595c1c                OSTimeDly
                0x0000000004595cb8                OSTimeDlyHMSM
                0x0000000004595ddc                OSTimeDlyResume
                0x0000000004595ef4                OSTimeGet
                0x0000000004595f18                OSTimeSet
 .text          0x0000000004595f3c       0x7c ../lab5_bsp/\libucosii_bsp.a(alt_sys_init.o)
                0x0000000004595f3c                alt_irq_init
                0x0000000004595f5c                alt_sys_init
 .text          0x0000000004595fb8       0x98 ../lab5_bsp/\libucosii_bsp.a(altera_avalon_jtag_uart_fd.o)
                0x0000000004595fb8                altera_avalon_jtag_uart_read_fd
                0x0000000004595fe0                altera_avalon_jtag_uart_write_fd
                0x0000000004596008                altera_avalon_jtag_uart_close_fd
                0x0000000004596030                altera_avalon_jtag_uart_ioctl_fd
 .text          0x0000000004596050      0x344 ../lab5_bsp/\libucosii_bsp.a(altera_avalon_jtag_uart_init.o)
                0x0000000004596290                altera_avalon_jtag_uart_init
                0x0000000004596358                altera_avalon_jtag_uart_close
 .text          0x0000000004596394       0x88 ../lab5_bsp/\libucosii_bsp.a(altera_avalon_jtag_uart_ioctl.o)
                0x0000000004596394                altera_avalon_jtag_uart_ioctl
 .text          0x000000000459641c      0x1bc ../lab5_bsp/\libucosii_bsp.a(altera_avalon_jtag_uart_read.o)
                0x000000000459641c                altera_avalon_jtag_uart_read
 .text          0x00000000045965d8      0x1e4 ../lab5_bsp/\libucosii_bsp.a(altera_avalon_jtag_uart_write.o)
                0x00000000045965d8                altera_avalon_jtag_uart_write
 .text          0x00000000045967bc       0x94 ../lab5_bsp/\libucosii_bsp.a(altera_avalon_timer_sc.o)
                0x00000000045967f8                alt_avalon_timer_sc_init
 .text          0x0000000004596850       0x94 ../lab5_bsp/\libucosii_bsp.a(alt_alarm_start.o)
                0x0000000004596850                alt_alarm_start
 .text          0x00000000045968e4       0x80 ../lab5_bsp/\libucosii_bsp.a(alt_dev_llist_insert.o)
                0x00000000045968e4                alt_dev_llist_insert
 .text          0x0000000004596964       0x68 ../lab5_bsp/\libucosii_bsp.a(alt_do_ctors.o)
                0x0000000004596964                _do_ctors
 .text          0x00000000045969cc       0x68 ../lab5_bsp/\libucosii_bsp.a(alt_do_dtors.o)
                0x00000000045969cc                _do_dtors
 .text          0x0000000004596a34        0x0 ../lab5_bsp/\libucosii_bsp.a(alt_exception_entry.o)
 .text          0x0000000004596a34       0x20 ../lab5_bsp/\libucosii_bsp.a(alt_icache_flush_all.o)
                0x0000000004596a34                alt_icache_flush_all
 .text          0x0000000004596a54       0xfc ../lab5_bsp/\libucosii_bsp.a(alt_io_redirect.o)
                0x0000000004596ab8                alt_io_redirect
 .text          0x0000000004596b50      0x180 ../lab5_bsp/\libucosii_bsp.a(alt_open.o)
                0x0000000004596b50                open
 .text          0x0000000004596cd0        0x8 ../lab5_bsp/\libucosii_bsp.a(altera_nios2_qsys_irq.o)
                0x0000000004596cd0                altera_nios2_qsys_irq_init
 .text          0x0000000004596cd8       0xd0 ../lab5_bsp/\libucosii_bsp.a(os_cpu_a.o)
                0x0000000004596cd8                OSCtxSw
                0x0000000004596cd8                OSIntCtxSw
                0x0000000004596d64                OSStartHighRdy
                0x0000000004596d84                OSStartTsk
 .text          0x0000000004596da8      0x1ec ../lab5_bsp/\libucosii_bsp.a(os_cpu_c.o)
                0x0000000004596da8                OSTaskStkInit
                0x0000000004596f70                OSTaskCreateHook
                0x0000000004596f74                OSTaskDelHook
                0x0000000004596f78                OSTaskSwHook
                0x0000000004596f7c                OSTaskStatHook
                0x0000000004596f80                OSTimeTickHook
                0x0000000004596f84                OSInitHookBegin
                0x0000000004596f88                OSInitHookEnd
                0x0000000004596f8c                OSTaskIdleHook
                0x0000000004596f90                OSTCBInitHook
 .text          0x0000000004596f94       0x80 ../lab5_bsp/\libucosii_bsp.a(alt_find_dev.o)
                0x0000000004596f94                alt_find_dev
 .text          0x0000000004597014       0xc8 ../lab5_bsp/\libucosii_bsp.a(alt_find_file.o)
                0x0000000004597014                alt_find_file
 .text          0x00000000045970dc       0xcc ../lab5_bsp/\libucosii_bsp.a(alt_get_fd.o)
                0x00000000045970dc                alt_get_fd
 .text          0x00000000045971a8       0x58 ../lab5_bsp/\libucosii_bsp.a(alt_icache_flush.o)
                0x00000000045971a8                alt_icache_flush
 .text          0x0000000004597200       0x14 c:/altera/14.1/nios2eds/bin/gnu/h-x86_64-mingw32/bin/../lib/gcc/nios2-elf/4.8.3/../../../../../H-x86_64-mingw32/nios2-elf/lib\libc.a(lib_a-atexit.o)
                0x0000000004597200                atexit
 .text          0x0000000004597214       0x38 c:/altera/14.1/nios2eds/bin/gnu/h-x86_64-mingw32/bin/../lib/gcc/nios2-elf/4.8.3/../../../../../H-x86_64-mingw32/nios2-elf/lib\libc.a(lib_a-exit.o)
                0x0000000004597214                exit
 .text          0x000000000459724c       0x7c c:/altera/14.1/nios2eds/bin/gnu/h-x86_64-mingw32/bin/../lib/gcc/nios2-elf/4.8.3/../../../../../H-x86_64-mingw32/nios2-elf/lib\libc.a(lib_a-memcmp.o)
                0x000000000459724c                memcmp
 .text          0x00000000045972c8      0x11c c:/altera/14.1/nios2eds/bin/gnu/h-x86_64-mingw32/bin/../lib/gcc/nios2-elf/4.8.3/../../../../../H-x86_64-mingw32/nios2-elf/lib\libc.a(lib_a-__atexit.o)
                0x00000000045972c8                __register_exitproc
 .text          0x00000000045973e4      0x1a4 c:/altera/14.1/nios2eds/bin/gnu/h-x86_64-mingw32/bin/../lib/gcc/nios2-elf/4.8.3/../../../../../H-x86_64-mingw32/nios2-elf/lib\libc.a(lib_a-__call_atexit.o)
                0x00000000045973e4                __call_exitprocs
 .text          0x0000000004597588       0x20 ../lab5_bsp/\libucosii_bsp.a(alt_exit.o)
                0x0000000004597588                _exit
 *(.gnu.warning.*)
 *(.fini)
                0x00000000045975a8                PROVIDE (__etext, ABSOLUTE (.))
                0x00000000045975a8                PROVIDE (_etext, ABSOLUTE (.))
                0x00000000045975a8                PROVIDE (etext, ABSOLUTE (.))
 *(.eh_frame_hdr)
                0x00000000045975a8                . = ALIGN (0x4)
                0x00000000045975a8                PROVIDE (__preinit_array_start, ABSOLUTE (.))
 *(.preinit_array)
                0x00000000045975a8                PROVIDE (__preinit_array_end, ABSOLUTE (.))
                0x00000000045975a8                PROVIDE (__init_array_start, ABSOLUTE (.))
 *(.init_array)
                0x00000000045975a8                PROVIDE (__init_array_end, ABSOLUTE (.))
                0x00000000045975a8                PROVIDE (__fini_array_start, ABSOLUTE (.))
 *(.fini_array)
                0x00000000045975a8                PROVIDE (__fini_array_end, ABSOLUTE (.))
 *(.eh_frame)
 *(.gcc_except_table .gcc_except_table.*)
 *(.dynamic)
                0x00000000045975a8                PROVIDE (__CTOR_LIST__, ABSOLUTE (.))
 *(.ctors)
 *(SORT(.ctors.*))
                0x00000000045975a8                PROVIDE (__CTOR_END__, ABSOLUTE (.))
                0x00000000045975a8                PROVIDE (__DTOR_LIST__, ABSOLUTE (.))
 *(.dtors)
 *(SORT(.dtors.*))
                0x00000000045975a8                PROVIDE (__DTOR_END__, ABSOLUTE (.))
 *(.jcr)
                0x00000000045975a8                . = ALIGN (0x4)

.rodata         0x00000000045975a8   0x1973b8
                0x00000000045975a8                PROVIDE (__ram_rodata_start, ABSOLUTE (.))
                0x00000000045975a8                . = ALIGN (0x4)
 *(.rodata .rodata.* .gnu.linkonce.r.*)
 .rodata        0x00000000045975a8     0x77f2 obj/default/fonts/tahomabold_20.o
 .rodata        0x000000000459ed9a    0x12520 obj/default/fonts/tahomabold_32.o
 *fill*         0x00000000045b12ba        0x2 
 .rodata.str1.4
                0x00000000045b12bc        0xe obj/default/graphic_lib/draw_gimps.o
                                         0x10 (size before relaxing)
 *fill*         0x00000000045b12ca        0x2 
 .rodata.str1.4
                0x00000000045b12cc       0x2f obj/default/hello_ucosii.o
                                         0x30 (size before relaxing)
 *fill*         0x00000000045b12fb        0x1 
 .rodata        0x00000000045b12fc     0x28cc obj/default/imagenes/back_down.o
                0x00000000045b12fc                back_down
 .rodata        0x00000000045b3bc8     0x28cc obj/default/imagenes/back_up.o
                0x00000000045b3bc8                back_up
 .rodata        0x00000000045b6494     0x28cc obj/default/imagenes/ford_down.o
                0x00000000045b6494                ford_down
 .rodata        0x00000000045b8d60     0x28cc obj/default/imagenes/ford_up.o
                0x00000000045b8d60                ford_up
 .rodata        0x00000000045bb62c     0x8dd0 obj/default/imagenes/pause_down.o
                0x00000000045bb62c                pause_down
 .rodata        0x00000000045c43fc     0x8dd0 obj/default/imagenes/pause_up.o
                0x00000000045c43fc                pause_up
 .rodata        0x00000000045cd1cc     0x7820 obj/default/imagenes/play_down.o
                0x00000000045cd1cc                play_down
 .rodata        0x00000000045d49ec     0x7820 obj/default/imagenes/play_up.o
                0x00000000045d49ec                play_up
 .rodata        0x00000000045dc20c     0x7f88 obj/default/imagenes/stop_down.o
                0x00000000045dc20c                stop_down
 .rodata        0x00000000045e4194     0x7f88 obj/default/imagenes/stop_up.o
                0x00000000045e4194                stop_up
 .rodata        0x00000000045ec11c   0x142440 obj/default/song/song.o
                0x00000000045ec11c                song
 .rodata.str1.4
                0x000000000472e55c       0x42 c:/altera/14.1/nios2eds/bin/gnu/h-x86_64-mingw32/bin/../lib/gcc/nios2-elf/4.8.3/../../../../../H-x86_64-mingw32/nios2-elf/lib\libc.a(lib_a-vfprintf.o)
                                         0x44 (size before relaxing)
 .rodata        0x000000000472e59e       0x20 c:/altera/14.1/nios2eds/bin/gnu/h-x86_64-mingw32/bin/../lib/gcc/nios2-elf/4.8.3/../../../../../H-x86_64-mingw32/nios2-elf/lib\libc.a(lib_a-vfprintf.o)
 *fill*         0x000000000472e5be        0x2 
 .rodata.str1.4
                0x000000000472e5c0       0x10 c:/altera/14.1/nios2eds/bin/gnu/h-x86_64-mingw32/bin/../lib/gcc/nios2-elf/4.8.3/../../../../../H-x86_64-mingw32/nios2-elf/lib\libc.a(lib_a-dtoa.o)
                                         0x14 (size before relaxing)
 .rodata.str1.4
                0x000000000472e5d0        0x2 c:/altera/14.1/nios2eds/bin/gnu/h-x86_64-mingw32/bin/../lib/gcc/nios2-elf/4.8.3/../../../../../H-x86_64-mingw32/nios2-elf/lib\libc.a(lib_a-impure.o)
                                          0x4 (size before relaxing)
 *fill*         0x000000000472e5d2        0x2 
 .rodata.str1.4
                0x000000000472e5d4        0xa c:/altera/14.1/nios2eds/bin/gnu/h-x86_64-mingw32/bin/../lib/gcc/nios2-elf/4.8.3/../../../../../H-x86_64-mingw32/nios2-elf/lib\libc.a(lib_a-locale.o)
                                         0x14 (size before relaxing)
 *fill*         0x000000000472e5de        0x2 
 .rodata        0x000000000472e5e0      0x124 c:/altera/14.1/nios2eds/bin/gnu/h-x86_64-mingw32/bin/../lib/gcc/nios2-elf/4.8.3/../../../../../H-x86_64-mingw32/nios2-elf/lib\libc.a(lib_a-mprec.o)
                0x000000000472e5ec                __mprec_tinytens
                0x000000000472e614                __mprec_bigtens
                0x000000000472e63c                __mprec_tens
 .rodata.str1.4
                0x0000000000000000       0x30 c:/altera/14.1/nios2eds/bin/gnu/h-x86_64-mingw32/bin/../lib/gcc/nios2-elf/4.8.3/../../../../../H-x86_64-mingw32/nios2-elf/lib\libc.a(lib_a-vfiprintf.o)
 .rodata        0x000000000472e704       0x20 c:/altera/14.1/nios2eds/bin/gnu/h-x86_64-mingw32/bin/../lib/gcc/nios2-elf/4.8.3/../../../../../H-x86_64-mingw32/nios2-elf/lib\libc.a(lib_a-vfiprintf.o)
 .rodata        0x000000000472e724      0x100 c:/altera/14.1/nios2eds/bin/gnu/h-x86_64-mingw32/bin/../lib/gcc/nios2-elf/4.8.3\libgcc.a(_clz.o)
                0x000000000472e724                __clz_tab
 .rodata.str1.4
                0x000000000472e824        0xa ../lab5_bsp/\libucosii_bsp.a(alt_dev.o)
                                          0xc (size before relaxing)
 *fill*         0x000000000472e82e        0x2 
 .rodata.str1.4
                0x000000000472e830        0xf ../lab5_bsp/\libucosii_bsp.a(alt_main.o)
                                         0x10 (size before relaxing)
 *fill*         0x000000000472e83f        0x1 
 .rodata.str1.4
                0x000000000472e840       0x20 ../lab5_bsp/\libucosii_bsp.a(os_core.o)
 .rodata        0x000000000472e860      0x100 ../lab5_bsp/\libucosii_bsp.a(os_core.o)
                0x000000000472e860                OSUnMapTbl
 .rodata.str1.4
                0x0000000000000000       0x10 ../lab5_bsp/\libucosii_bsp.a(alt_sys_init.o)
 .rodata.str1.4
                0x0000000000000000        0x4 ../lab5_bsp/\libucosii_bsp.a(os_cpu_c.o)
 *(.rodata1)
                0x000000000472e960                . = ALIGN (0x4)
                0x000000000472e960                PROVIDE (__ram_rodata_end, ABSOLUTE (.))
                0x00000000045975a8                PROVIDE (__flash_rodata_start, LOADADDR (.rodata))

.rwdata         0x000000000472e960     0x3718 load address 0x0000000004732078
                0x000000000472e960                PROVIDE (__ram_rwdata_start, ABSOLUTE (.))
                0x000000000472e960                . = ALIGN (0x4)
 *(.got.plt)
 *(.got)
 *(.data1)
 *(.data .data.* .gnu.linkonce.d.*)
 .data          0x000000000472e960        0x0 ../lab5_bsp//obj/HAL/src/crt0.o
 .data          0x000000000472e960        0x0 obj/default/drivers/drivers.o
 .data          0x000000000472e960      0xbc0 obj/default/fonts/tahomabold_20.o
                0x000000000472e960                tahomabold_20
 .data          0x000000000472f520      0xbc0 obj/default/fonts/tahomabold_32.o
                0x000000000472f520                tahomabold_32
 .data          0x00000000047300e0        0x0 obj/default/frame.o
 .data          0x00000000047300e0        0x0 obj/default/graphic_lib/draw_gimps.o
 .data          0x00000000047300e0        0x0 obj/default/graphic_lib/gimp_bmp.o
 .data          0x00000000047300e0      0x415 obj/default/graphic_lib/simple_graphics.o
                0x00000000047300e0                cour10_font_array
 .data          0x00000000047304f5        0x0 obj/default/graphic_lib/simple_text.o
 .data          0x00000000047304f5        0x0 obj/default/hello_ucosii.o
 .data          0x00000000047304f5        0x0 obj/default/imagenes/back_down.o
 .data          0x00000000047304f5        0x0 obj/default/imagenes/back_up.o
 .data          0x00000000047304f5        0x0 obj/default/imagenes/ford_down.o
 .data          0x00000000047304f5        0x0 obj/default/imagenes/ford_up.o
 .data          0x00000000047304f5        0x0 obj/default/imagenes/pause_down.o
 .data          0x00000000047304f5        0x0 obj/default/imagenes/pause_up.o
 .data          0x00000000047304f5        0x0 obj/default/imagenes/play_down.o
 .data          0x00000000047304f5        0x0 obj/default/imagenes/play_up.o
 .data          0x00000000047304f5        0x0 obj/default/imagenes/stop_down.o
 .data          0x00000000047304f5        0x0 obj/default/imagenes/stop_up.o
 .data          0x00000000047304f5        0x0 obj/default/song/song.o
 .data          0x00000000047304f5        0x0 obj/default/student_code/student_code.o
 .data          0x00000000047304f5        0x0 obj/default/vip_fr.o
 .data          0x00000000047304f5        0x0 c:/altera/14.1/nios2eds/bin/gnu/h-x86_64-mingw32/bin/../lib/gcc/nios2-elf/4.8.3\libgcc.a(lib2-divmod.o)
 .data          0x00000000047304f5        0x0 c:/altera/14.1/nios2eds/bin/gnu/h-x86_64-mingw32/bin/../lib/gcc/nios2-elf/4.8.3\libgcc.a(fixsfsi.o)
 .data          0x00000000047304f5        0x0 c:/altera/14.1/nios2eds/bin/gnu/h-x86_64-mingw32/bin/../lib/gcc/nios2-elf/4.8.3/../../../../../H-x86_64-mingw32/nios2-elf/lib\libc.a(lib_a-malloc.o)
 *fill*         0x00000000047304f5        0x3 
 .data          0x00000000047304f8      0x408 c:/altera/14.1/nios2eds/bin/gnu/h-x86_64-mingw32/bin/../lib/gcc/nios2-elf/4.8.3/../../../../../H-x86_64-mingw32/nios2-elf/lib\libc.a(lib_a-mallocr.o)
                0x00000000047304f8                __malloc_av_
 .data          0x0000000004730900        0x0 c:/altera/14.1/nios2eds/bin/gnu/h-x86_64-mingw32/bin/../lib/gcc/nios2-elf/4.8.3/../../../../../H-x86_64-mingw32/nios2-elf/lib\libc.a(lib_a-memcpy.o)
 .data          0x0000000004730900        0x0 c:/altera/14.1/nios2eds/bin/gnu/h-x86_64-mingw32/bin/../lib/gcc/nios2-elf/4.8.3/../../../../../H-x86_64-mingw32/nios2-elf/lib\libc.a(lib_a-memset.o)
 .data          0x0000000004730900        0x0 c:/altera/14.1/nios2eds/bin/gnu/h-x86_64-mingw32/bin/../lib/gcc/nios2-elf/4.8.3/../../../../../H-x86_64-mingw32/nios2-elf/lib\libc.a(lib_a-printf.o)
 .data          0x0000000004730900        0x0 c:/altera/14.1/nios2eds/bin/gnu/h-x86_64-mingw32/bin/../lib/gcc/nios2-elf/4.8.3/../../../../../H-x86_64-mingw32/nios2-elf/lib\libc.a(lib_a-sbrkr.o)
 .data          0x0000000004730900        0x0 c:/altera/14.1/nios2eds/bin/gnu/h-x86_64-mingw32/bin/../lib/gcc/nios2-elf/4.8.3/../../../../../H-x86_64-mingw32/nios2-elf/lib\libc.a(lib_a-strcpy.o)
 .data          0x0000000004730900        0x0 c:/altera/14.1/nios2eds/bin/gnu/h-x86_64-mingw32/bin/../lib/gcc/nios2-elf/4.8.3/../../../../../H-x86_64-mingw32/nios2-elf/lib\libc.a(lib_a-strlen.o)
 .data          0x0000000004730900        0x0 c:/altera/14.1/nios2eds/bin/gnu/h-x86_64-mingw32/bin/../lib/gcc/nios2-elf/4.8.3/../../../../../H-x86_64-mingw32/nios2-elf/lib\libc.a(lib_a-vfprintf.o)
 .data          0x0000000004730900        0x0 c:/altera/14.1/nios2eds/bin/gnu/h-x86_64-mingw32/bin/../lib/gcc/nios2-elf/4.8.3/../../../../../H-x86_64-mingw32/nios2-elf/lib\libc.a(lib_a-wsetup.o)
 .data          0x0000000004730900        0x0 c:/altera/14.1/nios2eds/bin/gnu/h-x86_64-mingw32/bin/../lib/gcc/nios2-elf/4.8.3/../../../../../H-x86_64-mingw32/nios2-elf/lib\libc.a(lib_a-dtoa.o)
 .data          0x0000000004730900        0x0 c:/altera/14.1/nios2eds/bin/gnu/h-x86_64-mingw32/bin/../lib/gcc/nios2-elf/4.8.3/../../../../../H-x86_64-mingw32/nios2-elf/lib\libc.a(lib_a-fflush.o)
 .data          0x0000000004730900        0x0 c:/altera/14.1/nios2eds/bin/gnu/h-x86_64-mingw32/bin/../lib/gcc/nios2-elf/4.8.3/../../../../../H-x86_64-mingw32/nios2-elf/lib\libc.a(lib_a-findfp.o)
 .data          0x0000000004730900        0x0 c:/altera/14.1/nios2eds/bin/gnu/h-x86_64-mingw32/bin/../lib/gcc/nios2-elf/4.8.3/../../../../../H-x86_64-mingw32/nios2-elf/lib\libc.a(lib_a-freer.o)
 .data          0x0000000004730900        0x0 c:/altera/14.1/nios2eds/bin/gnu/h-x86_64-mingw32/bin/../lib/gcc/nios2-elf/4.8.3/../../../../../H-x86_64-mingw32/nios2-elf/lib\libc.a(lib_a-fwalk.o)
 .data          0x0000000004730900      0x424 c:/altera/14.1/nios2eds/bin/gnu/h-x86_64-mingw32/bin/../lib/gcc/nios2-elf/4.8.3/../../../../../H-x86_64-mingw32/nios2-elf/lib\libc.a(lib_a-impure.o)
 .data          0x0000000004730d24        0x0 c:/altera/14.1/nios2eds/bin/gnu/h-x86_64-mingw32/bin/../lib/gcc/nios2-elf/4.8.3/../../../../../H-x86_64-mingw32/nios2-elf/lib\libc.a(lib_a-int_errno.o)
 .data          0x0000000004730d24       0x78 c:/altera/14.1/nios2eds/bin/gnu/h-x86_64-mingw32/bin/../lib/gcc/nios2-elf/4.8.3/../../../../../H-x86_64-mingw32/nios2-elf/lib\libc.a(lib_a-locale.o)
 .data          0x0000000004730d9c        0x0 c:/altera/14.1/nios2eds/bin/gnu/h-x86_64-mingw32/bin/../lib/gcc/nios2-elf/4.8.3/../../../../../H-x86_64-mingw32/nios2-elf/lib\libc.a(lib_a-makebuf.o)
 .data          0x0000000004730d9c        0x0 c:/altera/14.1/nios2eds/bin/gnu/h-x86_64-mingw32/bin/../lib/gcc/nios2-elf/4.8.3/../../../../../H-x86_64-mingw32/nios2-elf/lib\libc.a(lib_a-memchr.o)
 .data          0x0000000004730d9c        0x0 c:/altera/14.1/nios2eds/bin/gnu/h-x86_64-mingw32/bin/../lib/gcc/nios2-elf/4.8.3/../../../../../H-x86_64-mingw32/nios2-elf/lib\libc.a(lib_a-mprec.o)
 .data          0x0000000004730d9c        0x0 c:/altera/14.1/nios2eds/bin/gnu/h-x86_64-mingw32/bin/../lib/gcc/nios2-elf/4.8.3/../../../../../H-x86_64-mingw32/nios2-elf/lib\libc.a(lib_a-s_fpclassify.o)
 .data          0x0000000004730d9c        0x0 c:/altera/14.1/nios2eds/bin/gnu/h-x86_64-mingw32/bin/../lib/gcc/nios2-elf/4.8.3/../../../../../H-x86_64-mingw32/nios2-elf/lib\libc.a(lib_a-stdio.o)
 .data          0x0000000004730d9c        0x0 c:/altera/14.1/nios2eds/bin/gnu/h-x86_64-mingw32/bin/../lib/gcc/nios2-elf/4.8.3/../../../../../H-x86_64-mingw32/nios2-elf/lib\libc.a(lib_a-strcmp.o)
 .data          0x0000000004730d9c        0x0 c:/altera/14.1/nios2eds/bin/gnu/h-x86_64-mingw32/bin/../lib/gcc/nios2-elf/4.8.3/../../../../../H-x86_64-mingw32/nios2-elf/lib\libc.a(lib_a-vfiprintf.o)
 .data          0x0000000004730d9c        0x0 c:/altera/14.1/nios2eds/bin/gnu/h-x86_64-mingw32/bin/../lib/gcc/nios2-elf/4.8.3/../../../../../H-x86_64-mingw32/nios2-elf/lib\libc.a(lib_a-writer.o)
 .data          0x0000000004730d9c        0x0 c:/altera/14.1/nios2eds/bin/gnu/h-x86_64-mingw32/bin/../lib/gcc/nios2-elf/4.8.3/../../../../../H-x86_64-mingw32/nios2-elf/lib\libc.a(closer.o)
 .data          0x0000000004730d9c        0x0 c:/altera/14.1/nios2eds/bin/gnu/h-x86_64-mingw32/bin/../lib/gcc/nios2-elf/4.8.3/../../../../../H-x86_64-mingw32/nios2-elf/lib\libc.a(lib_a-callocr.o)
 .data          0x0000000004730d9c        0x0 c:/altera/14.1/nios2eds/bin/gnu/h-x86_64-mingw32/bin/../lib/gcc/nios2-elf/4.8.3/../../../../../H-x86_64-mingw32/nios2-elf/lib\libc.a(lib_a-fclose.o)
 .data          0x0000000004730d9c        0x0 c:/altera/14.1/nios2eds/bin/gnu/h-x86_64-mingw32/bin/../lib/gcc/nios2-elf/4.8.3/../../../../../H-x86_64-mingw32/nios2-elf/lib\libc.a(lib_a-fputwc.o)
 .data          0x0000000004730d9c        0x0 c:/altera/14.1/nios2eds/bin/gnu/h-x86_64-mingw32/bin/../lib/gcc/nios2-elf/4.8.3/../../../../../H-x86_64-mingw32/nios2-elf/lib\libc.a(lib_a-fstatr.o)
 .data          0x0000000004730d9c        0x0 c:/altera/14.1/nios2eds/bin/gnu/h-x86_64-mingw32/bin/../lib/gcc/nios2-elf/4.8.3/../../../../../H-x86_64-mingw32/nios2-elf/lib\libc.a(lib_a-fvwrite.o)
 .data          0x0000000004730d9c        0x0 c:/altera/14.1/nios2eds/bin/gnu/h-x86_64-mingw32/bin/../lib/gcc/nios2-elf/4.8.3/../../../../../H-x86_64-mingw32/nios2-elf/lib\libc.a(lib_a-isattyr.o)
 .data          0x0000000004730d9c        0x0 c:/altera/14.1/nios2eds/bin/gnu/h-x86_64-mingw32/bin/../lib/gcc/nios2-elf/4.8.3/../../../../../H-x86_64-mingw32/nios2-elf/lib\libc.a(lib_a-lseekr.o)
 .data          0x0000000004730d9c        0x0 c:/altera/14.1/nios2eds/bin/gnu/h-x86_64-mingw32/bin/../lib/gcc/nios2-elf/4.8.3/../../../../../H-x86_64-mingw32/nios2-elf/lib\libc.a(lib_a-memmove.o)
 .data          0x0000000004730d9c        0x0 c:/altera/14.1/nios2eds/bin/gnu/h-x86_64-mingw32/bin/../lib/gcc/nios2-elf/4.8.3/../../../../../H-x86_64-mingw32/nios2-elf/lib\libc.a(lib_a-readr.o)
 .data          0x0000000004730d9c        0x0 c:/altera/14.1/nios2eds/bin/gnu/h-x86_64-mingw32/bin/../lib/gcc/nios2-elf/4.8.3/../../../../../H-x86_64-mingw32/nios2-elf/lib\libc.a(lib_a-reallocr.o)
 .data          0x0000000004730d9c        0x0 c:/altera/14.1/nios2eds/bin/gnu/h-x86_64-mingw32/bin/../lib/gcc/nios2-elf/4.8.3/../../../../../H-x86_64-mingw32/nios2-elf/lib\libc.a(lib_a-wbuf.o)
 .data          0x0000000004730d9c        0x0 c:/altera/14.1/nios2eds/bin/gnu/h-x86_64-mingw32/bin/../lib/gcc/nios2-elf/4.8.3/../../../../../H-x86_64-mingw32/nios2-elf/lib\libc.a(lib_a-wcrtomb.o)
 .data          0x0000000004730d9c        0x0 c:/altera/14.1/nios2eds/bin/gnu/h-x86_64-mingw32/bin/../lib/gcc/nios2-elf/4.8.3/../../../../../H-x86_64-mingw32/nios2-elf/lib\libc.a(lib_a-wctomb_r.o)
 .data          0x0000000004730d9c        0x0 c:/altera/14.1/nios2eds/bin/gnu/h-x86_64-mingw32/bin/../lib/gcc/nios2-elf/4.8.3\libgcc.a(_udivdi3.o)
 .data          0x0000000004730d9c        0x0 c:/altera/14.1/nios2eds/bin/gnu/h-x86_64-mingw32/bin/../lib/gcc/nios2-elf/4.8.3\libgcc.a(_umoddi3.o)
 .data          0x0000000004730d9c        0x0 c:/altera/14.1/nios2eds/bin/gnu/h-x86_64-mingw32/bin/../lib/gcc/nios2-elf/4.8.3\libgcc.a(adddf3.o)
 .data          0x0000000004730d9c        0x0 c:/altera/14.1/nios2eds/bin/gnu/h-x86_64-mingw32/bin/../lib/gcc/nios2-elf/4.8.3\libgcc.a(divdf3.o)
 .data          0x0000000004730d9c        0x0 c:/altera/14.1/nios2eds/bin/gnu/h-x86_64-mingw32/bin/../lib/gcc/nios2-elf/4.8.3\libgcc.a(eqdf2.o)
 .data          0x0000000004730d9c        0x0 c:/altera/14.1/nios2eds/bin/gnu/h-x86_64-mingw32/bin/../lib/gcc/nios2-elf/4.8.3\libgcc.a(gedf2.o)
 .data          0x0000000004730d9c        0x0 c:/altera/14.1/nios2eds/bin/gnu/h-x86_64-mingw32/bin/../lib/gcc/nios2-elf/4.8.3\libgcc.a(ledf2.o)
 .data          0x0000000004730d9c        0x0 c:/altera/14.1/nios2eds/bin/gnu/h-x86_64-mingw32/bin/../lib/gcc/nios2-elf/4.8.3\libgcc.a(muldf3.o)
 .data          0x0000000004730d9c        0x0 c:/altera/14.1/nios2eds/bin/gnu/h-x86_64-mingw32/bin/../lib/gcc/nios2-elf/4.8.3\libgcc.a(subdf3.o)
 .data          0x0000000004730d9c        0x0 c:/altera/14.1/nios2eds/bin/gnu/h-x86_64-mingw32/bin/../lib/gcc/nios2-elf/4.8.3\libgcc.a(fixdfsi.o)
 .data          0x0000000004730d9c        0x0 c:/altera/14.1/nios2eds/bin/gnu/h-x86_64-mingw32/bin/../lib/gcc/nios2-elf/4.8.3\libgcc.a(floatsidf.o)
 .data          0x0000000004730d9c        0x0 c:/altera/14.1/nios2eds/bin/gnu/h-x86_64-mingw32/bin/../lib/gcc/nios2-elf/4.8.3\libgcc.a(floatunsidf.o)
 .data          0x0000000004730d9c        0x0 c:/altera/14.1/nios2eds/bin/gnu/h-x86_64-mingw32/bin/../lib/gcc/nios2-elf/4.8.3\libgcc.a(_clz.o)
 .data          0x0000000004730d9c        0x0 c:/altera/14.1/nios2eds/bin/gnu/h-x86_64-mingw32/bin/../lib/gcc/nios2-elf/4.8.3\libgcc.a(_clzsi2.o)
 .data          0x0000000004730d9c        0x0 ../lab5_bsp/\libucosii_bsp.a(alt_close.o)
 .data          0x0000000004730d9c        0x0 ../lab5_bsp/\libucosii_bsp.a(alt_dcache_flush_all.o)
 .data          0x0000000004730d9c      0x1a8 ../lab5_bsp/\libucosii_bsp.a(alt_dev.o)
                0x0000000004730d9c                alt_fd_list
                0x0000000004730f1c                alt_dev_null
 .data          0x0000000004730f44        0x0 ../lab5_bsp/\libucosii_bsp.a(alt_errno.o)
 .data          0x0000000004730f44        0x0 ../lab5_bsp/\libucosii_bsp.a(alt_fstat.o)
 .data          0x0000000004730f44        0x0 ../lab5_bsp/\libucosii_bsp.a(alt_iic.o)
 .data          0x0000000004730f44        0x0 ../lab5_bsp/\libucosii_bsp.a(alt_iic_isr_register.o)
 .data          0x0000000004730f44        0x0 ../lab5_bsp/\libucosii_bsp.a(alt_irq_entry.o)
 .data          0x0000000004730f44        0x0 ../lab5_bsp/\libucosii_bsp.a(alt_irq_handler.o)
 .data          0x0000000004730f44        0x0 ../lab5_bsp/\libucosii_bsp.a(alt_irq_vars.o)
 .data          0x0000000004730f44        0x0 ../lab5_bsp/\libucosii_bsp.a(alt_isatty.o)
 .data          0x0000000004730f44        0x0 ../lab5_bsp/\libucosii_bsp.a(alt_load.o)
 .data          0x0000000004730f44        0x0 ../lab5_bsp/\libucosii_bsp.a(alt_lseek.o)
 .data          0x0000000004730f44        0x0 ../lab5_bsp/\libucosii_bsp.a(alt_main.o)
 .data          0x0000000004730f44        0x0 ../lab5_bsp/\libucosii_bsp.a(alt_read.o)
 .data          0x0000000004730f44        0x0 ../lab5_bsp/\libucosii_bsp.a(alt_release_fd.o)
 .data          0x0000000004730f44        0x0 ../lab5_bsp/\libucosii_bsp.a(alt_sbrk.o)
 .data          0x0000000004730f44        0x0 ../lab5_bsp/\libucosii_bsp.a(alt_tick.o)
 .data          0x0000000004730f44        0x0 ../lab5_bsp/\libucosii_bsp.a(alt_write.o)
 .data          0x0000000004730f44        0x0 ../lab5_bsp/\libucosii_bsp.a(alt_env_lock.o)
 .data          0x0000000004730f44        0x0 ../lab5_bsp/\libucosii_bsp.a(alt_malloc_lock.o)
 .data          0x0000000004730f44        0x0 ../lab5_bsp/\libucosii_bsp.a(os_core.o)
 .data          0x0000000004730f44        0x0 ../lab5_bsp/\libucosii_bsp.a(os_dbg.o)
 .data          0x0000000004730f44        0x0 ../lab5_bsp/\libucosii_bsp.a(os_flag.o)
 .data          0x0000000004730f44        0x0 ../lab5_bsp/\libucosii_bsp.a(os_mem.o)
 .data          0x0000000004730f44        0x0 ../lab5_bsp/\libucosii_bsp.a(os_q.o)
 .data          0x0000000004730f44        0x0 ../lab5_bsp/\libucosii_bsp.a(os_sem.o)
 .data          0x0000000004730f44        0x0 ../lab5_bsp/\libucosii_bsp.a(os_task.o)
 .data          0x0000000004730f44        0x0 ../lab5_bsp/\libucosii_bsp.a(os_time.o)
 .data          0x0000000004730f44     0x106c ../lab5_bsp/\libucosii_bsp.a(alt_sys_init.o)
 .data          0x0000000004731fb0        0x0 ../lab5_bsp/\libucosii_bsp.a(altera_avalon_jtag_uart_fd.o)
 .data          0x0000000004731fb0        0x0 ../lab5_bsp/\libucosii_bsp.a(altera_avalon_jtag_uart_init.o)
 .data          0x0000000004731fb0        0x0 ../lab5_bsp/\libucosii_bsp.a(altera_avalon_jtag_uart_ioctl.o)
 .data          0x0000000004731fb0        0x0 ../lab5_bsp/\libucosii_bsp.a(altera_avalon_jtag_uart_read.o)
 .data          0x0000000004731fb0        0x0 ../lab5_bsp/\libucosii_bsp.a(altera_avalon_jtag_uart_write.o)
 .data          0x0000000004731fb0        0x0 ../lab5_bsp/\libucosii_bsp.a(altera_avalon_timer_sc.o)
 .data          0x0000000004731fb0        0x0 ../lab5_bsp/\libucosii_bsp.a(alt_alarm_start.o)
 .data          0x0000000004731fb0        0x0 ../lab5_bsp/\libucosii_bsp.a(alt_dev_llist_insert.o)
 .data          0x0000000004731fb0        0x0 ../lab5_bsp/\libucosii_bsp.a(alt_do_ctors.o)
 .data          0x0000000004731fb0        0x0 ../lab5_bsp/\libucosii_bsp.a(alt_do_dtors.o)
 .data          0x0000000004731fb0        0x0 ../lab5_bsp/\libucosii_bsp.a(alt_exception_entry.o)
 .data          0x0000000004731fb0        0x0 ../lab5_bsp/\libucosii_bsp.a(alt_icache_flush_all.o)
 .data          0x0000000004731fb0        0x0 ../lab5_bsp/\libucosii_bsp.a(alt_io_redirect.o)
 .data          0x0000000004731fb0        0x0 ../lab5_bsp/\libucosii_bsp.a(alt_open.o)
 .data          0x0000000004731fb0        0x0 ../lab5_bsp/\libucosii_bsp.a(altera_nios2_qsys_irq.o)
 .data          0x0000000004731fb0        0x0 ../lab5_bsp/\libucosii_bsp.a(os_cpu_a.o)
 .data          0x0000000004731fb0        0x0 ../lab5_bsp/\libucosii_bsp.a(os_cpu_c.o)
 .data          0x0000000004731fb0        0x0 ../lab5_bsp/\libucosii_bsp.a(alt_find_dev.o)
 .data          0x0000000004731fb0        0x0 ../lab5_bsp/\libucosii_bsp.a(alt_find_file.o)
 .data          0x0000000004731fb0        0x0 ../lab5_bsp/\libucosii_bsp.a(alt_get_fd.o)
 .data          0x0000000004731fb0        0x0 ../lab5_bsp/\libucosii_bsp.a(alt_icache_flush.o)
 .data          0x0000000004731fb0        0x0 c:/altera/14.1/nios2eds/bin/gnu/h-x86_64-mingw32/bin/../lib/gcc/nios2-elf/4.8.3/../../../../../H-x86_64-mingw32/nios2-elf/lib\libc.a(lib_a-atexit.o)
 .data          0x0000000004731fb0        0x0 c:/altera/14.1/nios2eds/bin/gnu/h-x86_64-mingw32/bin/../lib/gcc/nios2-elf/4.8.3/../../../../../H-x86_64-mingw32/nios2-elf/lib\libc.a(lib_a-exit.o)
 .data          0x0000000004731fb0        0x0 c:/altera/14.1/nios2eds/bin/gnu/h-x86_64-mingw32/bin/../lib/gcc/nios2-elf/4.8.3/../../../../../H-x86_64-mingw32/nios2-elf/lib\libc.a(lib_a-memcmp.o)
 .data          0x0000000004731fb0        0x0 c:/altera/14.1/nios2eds/bin/gnu/h-x86_64-mingw32/bin/../lib/gcc/nios2-elf/4.8.3/../../../../../H-x86_64-mingw32/nios2-elf/lib\libc.a(lib_a-__atexit.o)
 .data          0x0000000004731fb0        0x0 c:/altera/14.1/nios2eds/bin/gnu/h-x86_64-mingw32/bin/../lib/gcc/nios2-elf/4.8.3/../../../../../H-x86_64-mingw32/nios2-elf/lib\libc.a(lib_a-__call_atexit.o)
 .data          0x0000000004731fb0        0x0 ../lab5_bsp/\libucosii_bsp.a(alt_exit.o)
                0x0000000004739fb0                _gp = ABSOLUTE ((. + 0x8000))
                0x0000000004739fb0                PROVIDE (gp, _gp)
 *(.rwdata .rwdata.*)
 *(.sdata .sdata.* .gnu.linkonce.s.*)
 .sdata         0x0000000004731fb0        0x4 obj/default/graphic_lib/simple_graphics.o
                0x0000000004731fb0                cour10_font
 .sdata         0x0000000004731fb4        0x4 obj/default/hello_ucosii.o
                0x0000000004731fb4                freq_reader
 .sdata         0x0000000004731fb8        0x4 obj/default/song/song.o
                0x0000000004731fb8                size_song
 .sdata         0x0000000004731fbc        0x8 c:/altera/14.1/nios2eds/bin/gnu/h-x86_64-mingw32/bin/../lib/gcc/nios2-elf/4.8.3/../../../../../H-x86_64-mingw32/nios2-elf/lib\libc.a(lib_a-mallocr.o)
                0x0000000004731fbc                __malloc_sbrk_base
                0x0000000004731fc0                __malloc_trim_threshold
 .sdata         0x0000000004731fc4        0x8 c:/altera/14.1/nios2eds/bin/gnu/h-x86_64-mingw32/bin/../lib/gcc/nios2-elf/4.8.3/../../../../../H-x86_64-mingw32/nios2-elf/lib\libc.a(lib_a-impure.o)
                0x0000000004731fc4                _global_impure_ptr
                0x0000000004731fc8                _impure_ptr
 .sdata         0x0000000004731fcc        0x4 c:/altera/14.1/nios2eds/bin/gnu/h-x86_64-mingw32/bin/../lib/gcc/nios2-elf/4.8.3/../../../../../H-x86_64-mingw32/nios2-elf/lib\libc.a(lib_a-locale.o)
                0x0000000004731fcc                __mb_cur_max
 .sdata         0x0000000004731fd0        0x4 c:/altera/14.1/nios2eds/bin/gnu/h-x86_64-mingw32/bin/../lib/gcc/nios2-elf/4.8.3/../../../../../H-x86_64-mingw32/nios2-elf/lib\libc.a(lib_a-wctomb_r.o)
                0x0000000004731fd0                __wctomb
 .sdata         0x0000000004731fd4       0x14 ../lab5_bsp/\libucosii_bsp.a(alt_dev.o)
                0x0000000004731fd4                alt_max_fd
                0x0000000004731fd8                alt_dev_list
                0x0000000004731fe0                alt_fs_list
 .sdata         0x0000000004731fe8        0x4 ../lab5_bsp/\libucosii_bsp.a(alt_errno.o)
                0x0000000004731fe8                alt_errno
 .sdata         0x0000000004731fec        0x4 ../lab5_bsp/\libucosii_bsp.a(alt_irq_vars.o)
                0x0000000004731fec                alt_priority_mask
 .sdata         0x0000000004731ff0        0x4 ../lab5_bsp/\libucosii_bsp.a(alt_sbrk.o)
 .sdata         0x0000000004731ff4        0x8 ../lab5_bsp/\libucosii_bsp.a(alt_tick.o)
                0x0000000004731ff4                alt_alarm_list
 .sdata         0x0000000004731ffc        0x4 ../lab5_bsp/\libucosii_bsp.a(alt_env_lock.o)
 .sdata         0x0000000004732000        0x4 ../lab5_bsp/\libucosii_bsp.a(alt_malloc_lock.o)
 .sdata         0x0000000004732004       0x74 ../lab5_bsp/\libucosii_bsp.a(os_dbg.o)
                0x0000000004732004                OSDataSize
                0x0000000004732006                OSTmrWheelTblSize
                0x0000000004732008                OSTmrWheelSize
                0x000000000473200a                OSTmrTblSize
                0x000000000473200c                OSTmrSize
                0x000000000473200e                OSTmrCfgTicksPerSec
                0x0000000004732010                OSTmrCfgWheelSize
                0x0000000004732012                OSTmrCfgNameSize
                0x0000000004732014                OSTmrCfgMax
                0x0000000004732016                OSTmrEn
                0x0000000004732018                OSVersionNbr
                0x000000000473201a                OSTimeTickHookEn
                0x000000000473201c                OSTicksPerSec
                0x000000000473201e                OSTCBSize
                0x0000000004732020                OSTCBPrioTblMax
                0x0000000004732022                OSTaskSwHookEn
                0x0000000004732024                OSTaskStatStkChkEn
                0x0000000004732026                OSTaskStatStkSize
                0x0000000004732028                OSTaskStatEn
                0x000000000473202a                OSTaskNameSize
                0x000000000473202c                OSTaskMax
                0x000000000473202e                OSTaskProfileEn
                0x0000000004732030                OSTaskIdleStkSize
                0x0000000004732032                OSTaskDelEn
                0x0000000004732034                OSTaskCreateExtEn
                0x0000000004732036                OSTaskCreateEn
                0x0000000004732038                OSStkWidth
                0x000000000473203a                OSSemEn
                0x000000000473203c                OSRdyTblSize
                0x000000000473203e                OSQSize
                0x0000000004732040                OSQMax
                0x0000000004732042                OSQEn
                0x0000000004732044                OSPtrSize
                0x0000000004732046                OSMutexEn
                0x0000000004732048                OSMemTblSize
                0x000000000473204a                OSMemSize
                0x000000000473204c                OSMemNameSize
                0x000000000473204e                OSMemMax
                0x0000000004732050                OSMemEn
                0x0000000004732052                OSMboxEn
                0x0000000004732054                OSLowestPrio
                0x0000000004732056                OSFlagNameSize
                0x0000000004732058                OSFlagMax
                0x000000000473205a                OSFlagWidth
                0x000000000473205c                OSFlagNodeSize
                0x000000000473205e                OSFlagGrpSize
                0x0000000004732060                OSFlagEn
                0x0000000004732062                OSEventMultiEn
                0x0000000004732064                OSEventTblSize
                0x0000000004732066                OSEventSize
                0x0000000004732068                OSEventNameSize
                0x000000000473206a                OSEventMax
                0x000000000473206c                OSEventEn
                0x0000000004732070                OSEndiannessTest
                0x0000000004732074                OSDebugEn
 *(.sdata2 .sdata2.* .gnu.linkonce.s2.*)
                0x0000000004732078                . = ALIGN (0x4)
                0x0000000004732078                _edata = ABSOLUTE (.)
                0x0000000004732078                PROVIDE (edata, ABSOLUTE (.))
                0x0000000004732078                PROVIDE (__ram_rwdata_end, ABSOLUTE (.))
                0x0000000004732078                PROVIDE (__flash_rwdata_start, LOADADDR (.rwdata))

.bss            0x0000000004735790     0xf404
                0x0000000004735790                __bss_start = ABSOLUTE (.)
                0x0000000004735790                PROVIDE (__sbss_start, ABSOLUTE (.))
                0x0000000004735790                PROVIDE (___sbss_start, ABSOLUTE (.))
 *(.dynsbss)
 *(.sbss .sbss.* .gnu.linkonce.sb.*)
 .sbss          0x0000000004735790        0x1 obj/default/drivers/drivers.o
 .sbss          0x0000000004735791        0x3 obj/default/hello_ucosii.o
                0x0000000004735791                stop_song
                0x0000000004735792                pause_song
                0x0000000004735793                play_song
 .sbss          0x0000000004735794        0x4 obj/default/hello_ucosii.o
                0x0000000004735794                SW_Frame
 .sbss          0x0000000004735798        0xc c:/altera/14.1/nios2eds/bin/gnu/h-x86_64-mingw32/bin/../lib/gcc/nios2-elf/4.8.3/../../../../../H-x86_64-mingw32/nios2-elf/lib\libc.a(lib_a-mallocr.o)
                0x0000000004735798                __malloc_max_total_mem
                0x000000000473579c                __malloc_max_sbrked_mem
                0x00000000047357a0                __malloc_top_pad
 .sbss          0x00000000047357a4        0x4 c:/altera/14.1/nios2eds/bin/gnu/h-x86_64-mingw32/bin/../lib/gcc/nios2-elf/4.8.3/../../../../../H-x86_64-mingw32/nios2-elf/lib\libc.a(lib_a-int_errno.o)
                0x00000000047357a4                errno
 .sbss          0x00000000047357a8        0xc c:/altera/14.1/nios2eds/bin/gnu/h-x86_64-mingw32/bin/../lib/gcc/nios2-elf/4.8.3/../../../../../H-x86_64-mingw32/nios2-elf/lib\libc.a(lib_a-locale.o)
                0x00000000047357a8                _PathLocale
                0x00000000047357ac                __mlocale_changed
                0x00000000047357b0                __nlocale_changed
 .sbss          0x00000000047357b4        0x4 ../lab5_bsp/\libucosii_bsp.a(alt_dev.o)
                0x00000000047357b4                alt_fd_list_lock
 .sbss          0x00000000047357b8        0x4 ../lab5_bsp/\libucosii_bsp.a(alt_irq_vars.o)
                0x00000000047357b8                alt_irq_active
 .sbss          0x00000000047357bc        0xc ../lab5_bsp/\libucosii_bsp.a(alt_main.o)
                0x00000000047357bc                alt_envp
                0x00000000047357c0                alt_argv
                0x00000000047357c4                alt_argc
 .sbss          0x00000000047357c8        0x8 ../lab5_bsp/\libucosii_bsp.a(alt_tick.o)
                0x00000000047357c8                _alt_nticks
                0x00000000047357cc                _alt_tick_rate
 .sbss          0x00000000047357d0        0x8 ../lab5_bsp/\libucosii_bsp.a(alt_env_lock.o)
                0x00000000047357d4                alt_envsem
 .sbss          0x00000000047357d8        0x8 ../lab5_bsp/\libucosii_bsp.a(alt_malloc_lock.o)
                0x00000000047357dc                alt_heapsem
 .sbss          0x00000000047357e0       0x50 ../lab5_bsp/\libucosii_bsp.a(os_core.o)
                0x00000000047357e0                OSLockNesting
                0x00000000047357e1                OSRunning
                0x00000000047357e4                OSIdleCtr
                0x00000000047357e8                OSPrioHighRdy
                0x00000000047357e9                OSPrioCur
                0x00000000047357ec                OSTCBList
                0x00000000047357f0                OSTickStepState
                0x00000000047357f4                OSCtxSwCtr
                0x00000000047357f8                OSIdleCtrMax
                0x00000000047357fc                OSTCBFreeList
                0x0000000004735800                OSCPUUsage
                0x0000000004735801                OSTaskCtr
                0x0000000004735804                OSMemFreeList
                0x0000000004735808                OSTCBHighRdy
                0x000000000473580c                OSQFreeList
                0x0000000004735810                OSRdyGrp
                0x0000000004735811                OSRdyTbl
                0x0000000004735814                OSEventFreeList
                0x0000000004735818                OSIntNesting
                0x000000000473581c                OSTCBCur
                0x0000000004735820                OSTime
                0x0000000004735824                OSFlagFreeList
                0x0000000004735828                OSStatRdy
                0x000000000473582c                OSIdleCtrRun
 *(.sbss2 .sbss2.* .gnu.linkonce.sb2.*)
 *(.scommon)
                0x0000000004735830                PROVIDE (__sbss_end, ABSOLUTE (.))
                0x0000000004735830                PROVIDE (___sbss_end, ABSOLUTE (.))
 *(.dynbss)
 *(.bss .bss.* .gnu.linkonce.b.*)
 .bss           0x0000000004735830        0x0 ../lab5_bsp//obj/HAL/src/crt0.o
 .bss           0x0000000004735830        0x0 obj/default/drivers/drivers.o
 .bss           0x0000000004735830        0x0 obj/default/fonts/tahomabold_20.o
 .bss           0x0000000004735830        0x0 obj/default/fonts/tahomabold_32.o
 .bss           0x0000000004735830        0x0 obj/default/frame.o
 .bss           0x0000000004735830        0x0 obj/default/graphic_lib/draw_gimps.o
 .bss           0x0000000004735830        0x0 obj/default/graphic_lib/gimp_bmp.o
 .bss           0x0000000004735830        0x0 obj/default/graphic_lib/simple_graphics.o
 .bss           0x0000000004735830        0x0 obj/default/graphic_lib/simple_text.o
 .bss           0x0000000004735830        0x0 obj/default/hello_ucosii.o
 .bss           0x0000000004735830        0x0 obj/default/imagenes/back_down.o
 .bss           0x0000000004735830        0x0 obj/default/imagenes/back_up.o
 .bss           0x0000000004735830        0x0 obj/default/imagenes/ford_down.o
 .bss           0x0000000004735830        0x0 obj/default/imagenes/ford_up.o
 .bss           0x0000000004735830        0x0 obj/default/imagenes/pause_down.o
 .bss           0x0000000004735830        0x0 obj/default/imagenes/pause_up.o
 .bss           0x0000000004735830        0x0 obj/default/imagenes/play_down.o
 .bss           0x0000000004735830        0x0 obj/default/imagenes/play_up.o
 .bss           0x0000000004735830        0x0 obj/default/imagenes/stop_down.o
 .bss           0x0000000004735830        0x0 obj/default/imagenes/stop_up.o
 .bss           0x0000000004735830        0x0 obj/default/song/song.o
 .bss           0x0000000004735830        0x0 obj/default/student_code/student_code.o
 .bss           0x0000000004735830        0x0 obj/default/vip_fr.o
 .bss           0x0000000004735830        0x0 c:/altera/14.1/nios2eds/bin/gnu/h-x86_64-mingw32/bin/../lib/gcc/nios2-elf/4.8.3\libgcc.a(lib2-divmod.o)
 .bss           0x0000000004735830        0x0 c:/altera/14.1/nios2eds/bin/gnu/h-x86_64-mingw32/bin/../lib/gcc/nios2-elf/4.8.3\libgcc.a(fixsfsi.o)
 .bss           0x0000000004735830        0x0 c:/altera/14.1/nios2eds/bin/gnu/h-x86_64-mingw32/bin/../lib/gcc/nios2-elf/4.8.3/../../../../../H-x86_64-mingw32/nios2-elf/lib\libc.a(lib_a-malloc.o)
 .bss           0x0000000004735830       0x28 c:/altera/14.1/nios2eds/bin/gnu/h-x86_64-mingw32/bin/../lib/gcc/nios2-elf/4.8.3/../../../../../H-x86_64-mingw32/nios2-elf/lib\libc.a(lib_a-mallocr.o)
                0x0000000004735830                __malloc_current_mallinfo
 .bss           0x0000000004735858        0x0 c:/altera/14.1/nios2eds/bin/gnu/h-x86_64-mingw32/bin/../lib/gcc/nios2-elf/4.8.3/../../../../../H-x86_64-mingw32/nios2-elf/lib\libc.a(lib_a-memcpy.o)
 .bss           0x0000000004735858        0x0 c:/altera/14.1/nios2eds/bin/gnu/h-x86_64-mingw32/bin/../lib/gcc/nios2-elf/4.8.3/../../../../../H-x86_64-mingw32/nios2-elf/lib\libc.a(lib_a-memset.o)
 .bss           0x0000000004735858        0x0 c:/altera/14.1/nios2eds/bin/gnu/h-x86_64-mingw32/bin/../lib/gcc/nios2-elf/4.8.3/../../../../../H-x86_64-mingw32/nios2-elf/lib\libc.a(lib_a-printf.o)
 .bss           0x0000000004735858        0x0 c:/altera/14.1/nios2eds/bin/gnu/h-x86_64-mingw32/bin/../lib/gcc/nios2-elf/4.8.3/../../../../../H-x86_64-mingw32/nios2-elf/lib\libc.a(lib_a-sbrkr.o)
 .bss           0x0000000004735858        0x0 c:/altera/14.1/nios2eds/bin/gnu/h-x86_64-mingw32/bin/../lib/gcc/nios2-elf/4.8.3/../../../../../H-x86_64-mingw32/nios2-elf/lib\libc.a(lib_a-strcpy.o)
 .bss           0x0000000004735858        0x0 c:/altera/14.1/nios2eds/bin/gnu/h-x86_64-mingw32/bin/../lib/gcc/nios2-elf/4.8.3/../../../../../H-x86_64-mingw32/nios2-elf/lib\libc.a(lib_a-strlen.o)
 .bss           0x0000000004735858        0x0 c:/altera/14.1/nios2eds/bin/gnu/h-x86_64-mingw32/bin/../lib/gcc/nios2-elf/4.8.3/../../../../../H-x86_64-mingw32/nios2-elf/lib\libc.a(lib_a-vfprintf.o)
 .bss           0x0000000004735858        0x0 c:/altera/14.1/nios2eds/bin/gnu/h-x86_64-mingw32/bin/../lib/gcc/nios2-elf/4.8.3/../../../../../H-x86_64-mingw32/nios2-elf/lib\libc.a(lib_a-wsetup.o)
 .bss           0x0000000004735858        0x0 c:/altera/14.1/nios2eds/bin/gnu/h-x86_64-mingw32/bin/../lib/gcc/nios2-elf/4.8.3/../../../../../H-x86_64-mingw32/nios2-elf/lib\libc.a(lib_a-dtoa.o)
 .bss           0x0000000004735858        0x0 c:/altera/14.1/nios2eds/bin/gnu/h-x86_64-mingw32/bin/../lib/gcc/nios2-elf/4.8.3/../../../../../H-x86_64-mingw32/nios2-elf/lib\libc.a(lib_a-fflush.o)
 .bss           0x0000000004735858        0x0 c:/altera/14.1/nios2eds/bin/gnu/h-x86_64-mingw32/bin/../lib/gcc/nios2-elf/4.8.3/../../../../../H-x86_64-mingw32/nios2-elf/lib\libc.a(lib_a-findfp.o)
 .bss           0x0000000004735858        0x0 c:/altera/14.1/nios2eds/bin/gnu/h-x86_64-mingw32/bin/../lib/gcc/nios2-elf/4.8.3/../../../../../H-x86_64-mingw32/nios2-elf/lib\libc.a(lib_a-freer.o)
 .bss           0x0000000004735858        0x0 c:/altera/14.1/nios2eds/bin/gnu/h-x86_64-mingw32/bin/../lib/gcc/nios2-elf/4.8.3/../../../../../H-x86_64-mingw32/nios2-elf/lib\libc.a(lib_a-fwalk.o)
 .bss           0x0000000004735858        0x0 c:/altera/14.1/nios2eds/bin/gnu/h-x86_64-mingw32/bin/../lib/gcc/nios2-elf/4.8.3/../../../../../H-x86_64-mingw32/nios2-elf/lib\libc.a(lib_a-impure.o)
 .bss           0x0000000004735858        0x0 c:/altera/14.1/nios2eds/bin/gnu/h-x86_64-mingw32/bin/../lib/gcc/nios2-elf/4.8.3/../../../../../H-x86_64-mingw32/nios2-elf/lib\libc.a(lib_a-int_errno.o)
 .bss           0x0000000004735858        0x0 c:/altera/14.1/nios2eds/bin/gnu/h-x86_64-mingw32/bin/../lib/gcc/nios2-elf/4.8.3/../../../../../H-x86_64-mingw32/nios2-elf/lib\libc.a(lib_a-locale.o)
 .bss           0x0000000004735858        0x0 c:/altera/14.1/nios2eds/bin/gnu/h-x86_64-mingw32/bin/../lib/gcc/nios2-elf/4.8.3/../../../../../H-x86_64-mingw32/nios2-elf/lib\libc.a(lib_a-makebuf.o)
 .bss           0x0000000004735858        0x0 c:/altera/14.1/nios2eds/bin/gnu/h-x86_64-mingw32/bin/../lib/gcc/nios2-elf/4.8.3/../../../../../H-x86_64-mingw32/nios2-elf/lib\libc.a(lib_a-memchr.o)
 .bss           0x0000000004735858        0x0 c:/altera/14.1/nios2eds/bin/gnu/h-x86_64-mingw32/bin/../lib/gcc/nios2-elf/4.8.3/../../../../../H-x86_64-mingw32/nios2-elf/lib\libc.a(lib_a-mprec.o)
 .bss           0x0000000004735858        0x0 c:/altera/14.1/nios2eds/bin/gnu/h-x86_64-mingw32/bin/../lib/gcc/nios2-elf/4.8.3/../../../../../H-x86_64-mingw32/nios2-elf/lib\libc.a(lib_a-s_fpclassify.o)
 .bss           0x0000000004735858        0x0 c:/altera/14.1/nios2eds/bin/gnu/h-x86_64-mingw32/bin/../lib/gcc/nios2-elf/4.8.3/../../../../../H-x86_64-mingw32/nios2-elf/lib\libc.a(lib_a-stdio.o)
 .bss           0x0000000004735858        0x0 c:/altera/14.1/nios2eds/bin/gnu/h-x86_64-mingw32/bin/../lib/gcc/nios2-elf/4.8.3/../../../../../H-x86_64-mingw32/nios2-elf/lib\libc.a(lib_a-strcmp.o)
 .bss           0x0000000004735858        0x0 c:/altera/14.1/nios2eds/bin/gnu/h-x86_64-mingw32/bin/../lib/gcc/nios2-elf/4.8.3/../../../../../H-x86_64-mingw32/nios2-elf/lib\libc.a(lib_a-vfiprintf.o)
 .bss           0x0000000004735858        0x0 c:/altera/14.1/nios2eds/bin/gnu/h-x86_64-mingw32/bin/../lib/gcc/nios2-elf/4.8.3/../../../../../H-x86_64-mingw32/nios2-elf/lib\libc.a(lib_a-writer.o)
 .bss           0x0000000004735858        0x0 c:/altera/14.1/nios2eds/bin/gnu/h-x86_64-mingw32/bin/../lib/gcc/nios2-elf/4.8.3/../../../../../H-x86_64-mingw32/nios2-elf/lib\libc.a(closer.o)
 .bss           0x0000000004735858        0x0 c:/altera/14.1/nios2eds/bin/gnu/h-x86_64-mingw32/bin/../lib/gcc/nios2-elf/4.8.3/../../../../../H-x86_64-mingw32/nios2-elf/lib\libc.a(lib_a-callocr.o)
 .bss           0x0000000004735858        0x0 c:/altera/14.1/nios2eds/bin/gnu/h-x86_64-mingw32/bin/../lib/gcc/nios2-elf/4.8.3/../../../../../H-x86_64-mingw32/nios2-elf/lib\libc.a(lib_a-fclose.o)
 .bss           0x0000000004735858        0x0 c:/altera/14.1/nios2eds/bin/gnu/h-x86_64-mingw32/bin/../lib/gcc/nios2-elf/4.8.3/../../../../../H-x86_64-mingw32/nios2-elf/lib\libc.a(lib_a-fputwc.o)
 .bss           0x0000000004735858        0x0 c:/altera/14.1/nios2eds/bin/gnu/h-x86_64-mingw32/bin/../lib/gcc/nios2-elf/4.8.3/../../../../../H-x86_64-mingw32/nios2-elf/lib\libc.a(lib_a-fstatr.o)
 .bss           0x0000000004735858        0x0 c:/altera/14.1/nios2eds/bin/gnu/h-x86_64-mingw32/bin/../lib/gcc/nios2-elf/4.8.3/../../../../../H-x86_64-mingw32/nios2-elf/lib\libc.a(lib_a-fvwrite.o)
 .bss           0x0000000004735858        0x0 c:/altera/14.1/nios2eds/bin/gnu/h-x86_64-mingw32/bin/../lib/gcc/nios2-elf/4.8.3/../../../../../H-x86_64-mingw32/nios2-elf/lib\libc.a(lib_a-isattyr.o)
 .bss           0x0000000004735858        0x0 c:/altera/14.1/nios2eds/bin/gnu/h-x86_64-mingw32/bin/../lib/gcc/nios2-elf/4.8.3/../../../../../H-x86_64-mingw32/nios2-elf/lib\libc.a(lib_a-lseekr.o)
 .bss           0x0000000004735858        0x0 c:/altera/14.1/nios2eds/bin/gnu/h-x86_64-mingw32/bin/../lib/gcc/nios2-elf/4.8.3/../../../../../H-x86_64-mingw32/nios2-elf/lib\libc.a(lib_a-memmove.o)
 .bss           0x0000000004735858        0x0 c:/altera/14.1/nios2eds/bin/gnu/h-x86_64-mingw32/bin/../lib/gcc/nios2-elf/4.8.3/../../../../../H-x86_64-mingw32/nios2-elf/lib\libc.a(lib_a-readr.o)
 .bss           0x0000000004735858        0x0 c:/altera/14.1/nios2eds/bin/gnu/h-x86_64-mingw32/bin/../lib/gcc/nios2-elf/4.8.3/../../../../../H-x86_64-mingw32/nios2-elf/lib\libc.a(lib_a-reallocr.o)
 .bss           0x0000000004735858        0x0 c:/altera/14.1/nios2eds/bin/gnu/h-x86_64-mingw32/bin/../lib/gcc/nios2-elf/4.8.3/../../../../../H-x86_64-mingw32/nios2-elf/lib\libc.a(lib_a-wbuf.o)
 .bss           0x0000000004735858        0x0 c:/altera/14.1/nios2eds/bin/gnu/h-x86_64-mingw32/bin/../lib/gcc/nios2-elf/4.8.3/../../../../../H-x86_64-mingw32/nios2-elf/lib\libc.a(lib_a-wcrtomb.o)
 .bss           0x0000000004735858        0x0 c:/altera/14.1/nios2eds/bin/gnu/h-x86_64-mingw32/bin/../lib/gcc/nios2-elf/4.8.3/../../../../../H-x86_64-mingw32/nios2-elf/lib\libc.a(lib_a-wctomb_r.o)
 .bss           0x0000000004735858        0x0 c:/altera/14.1/nios2eds/bin/gnu/h-x86_64-mingw32/bin/../lib/gcc/nios2-elf/4.8.3\libgcc.a(_udivdi3.o)
 .bss           0x0000000004735858        0x0 c:/altera/14.1/nios2eds/bin/gnu/h-x86_64-mingw32/bin/../lib/gcc/nios2-elf/4.8.3\libgcc.a(_umoddi3.o)
 .bss           0x0000000004735858        0x0 c:/altera/14.1/nios2eds/bin/gnu/h-x86_64-mingw32/bin/../lib/gcc/nios2-elf/4.8.3\libgcc.a(adddf3.o)
 .bss           0x0000000004735858        0x0 c:/altera/14.1/nios2eds/bin/gnu/h-x86_64-mingw32/bin/../lib/gcc/nios2-elf/4.8.3\libgcc.a(divdf3.o)
 .bss           0x0000000004735858        0x0 c:/altera/14.1/nios2eds/bin/gnu/h-x86_64-mingw32/bin/../lib/gcc/nios2-elf/4.8.3\libgcc.a(eqdf2.o)
 .bss           0x0000000004735858        0x0 c:/altera/14.1/nios2eds/bin/gnu/h-x86_64-mingw32/bin/../lib/gcc/nios2-elf/4.8.3\libgcc.a(gedf2.o)
 .bss           0x0000000004735858        0x0 c:/altera/14.1/nios2eds/bin/gnu/h-x86_64-mingw32/bin/../lib/gcc/nios2-elf/4.8.3\libgcc.a(ledf2.o)
 .bss           0x0000000004735858        0x0 c:/altera/14.1/nios2eds/bin/gnu/h-x86_64-mingw32/bin/../lib/gcc/nios2-elf/4.8.3\libgcc.a(muldf3.o)
 .bss           0x0000000004735858        0x0 c:/altera/14.1/nios2eds/bin/gnu/h-x86_64-mingw32/bin/../lib/gcc/nios2-elf/4.8.3\libgcc.a(subdf3.o)
 .bss           0x0000000004735858        0x0 c:/altera/14.1/nios2eds/bin/gnu/h-x86_64-mingw32/bin/../lib/gcc/nios2-elf/4.8.3\libgcc.a(fixdfsi.o)
 .bss           0x0000000004735858        0x0 c:/altera/14.1/nios2eds/bin/gnu/h-x86_64-mingw32/bin/../lib/gcc/nios2-elf/4.8.3\libgcc.a(floatsidf.o)
 .bss           0x0000000004735858        0x0 c:/altera/14.1/nios2eds/bin/gnu/h-x86_64-mingw32/bin/../lib/gcc/nios2-elf/4.8.3\libgcc.a(floatunsidf.o)
 .bss           0x0000000004735858        0x0 c:/altera/14.1/nios2eds/bin/gnu/h-x86_64-mingw32/bin/../lib/gcc/nios2-elf/4.8.3\libgcc.a(_clz.o)
 .bss           0x0000000004735858        0x0 c:/altera/14.1/nios2eds/bin/gnu/h-x86_64-mingw32/bin/../lib/gcc/nios2-elf/4.8.3\libgcc.a(_clzsi2.o)
 .bss           0x0000000004735858        0x0 ../lab5_bsp/\libucosii_bsp.a(alt_close.o)
 .bss           0x0000000004735858        0x0 ../lab5_bsp/\libucosii_bsp.a(alt_dcache_flush_all.o)
 .bss           0x0000000004735858        0x0 ../lab5_bsp/\libucosii_bsp.a(alt_dev.o)
 .bss           0x0000000004735858        0x0 ../lab5_bsp/\libucosii_bsp.a(alt_errno.o)
 .bss           0x0000000004735858        0x0 ../lab5_bsp/\libucosii_bsp.a(alt_fstat.o)
 .bss           0x0000000004735858        0x0 ../lab5_bsp/\libucosii_bsp.a(alt_iic.o)
 .bss           0x0000000004735858        0x0 ../lab5_bsp/\libucosii_bsp.a(alt_iic_isr_register.o)
 .bss           0x0000000004735858        0x0 ../lab5_bsp/\libucosii_bsp.a(alt_irq_entry.o)
 .bss           0x0000000004735858        0x0 ../lab5_bsp/\libucosii_bsp.a(alt_irq_handler.o)
 .bss           0x0000000004735858        0x0 ../lab5_bsp/\libucosii_bsp.a(alt_irq_vars.o)
 .bss           0x0000000004735858        0x0 ../lab5_bsp/\libucosii_bsp.a(alt_isatty.o)
 .bss           0x0000000004735858        0x0 ../lab5_bsp/\libucosii_bsp.a(alt_load.o)
 .bss           0x0000000004735858        0x0 ../lab5_bsp/\libucosii_bsp.a(alt_lseek.o)
 .bss           0x0000000004735858        0x0 ../lab5_bsp/\libucosii_bsp.a(alt_main.o)
 .bss           0x0000000004735858        0x0 ../lab5_bsp/\libucosii_bsp.a(alt_read.o)
 .bss           0x0000000004735858        0x0 ../lab5_bsp/\libucosii_bsp.a(alt_release_fd.o)
 .bss           0x0000000004735858        0x0 ../lab5_bsp/\libucosii_bsp.a(alt_sbrk.o)
 .bss           0x0000000004735858        0x0 ../lab5_bsp/\libucosii_bsp.a(alt_tick.o)
 .bss           0x0000000004735858        0x0 ../lab5_bsp/\libucosii_bsp.a(alt_write.o)
 .bss           0x0000000004735858        0x0 ../lab5_bsp/\libucosii_bsp.a(alt_env_lock.o)
 .bss           0x0000000004735858        0x0 ../lab5_bsp/\libucosii_bsp.a(alt_malloc_lock.o)
 .bss           0x0000000004735858        0x0 ../lab5_bsp/\libucosii_bsp.a(os_core.o)
 .bss           0x0000000004735858        0x0 ../lab5_bsp/\libucosii_bsp.a(os_dbg.o)
 .bss           0x0000000004735858        0x0 ../lab5_bsp/\libucosii_bsp.a(os_flag.o)
 .bss           0x0000000004735858        0x0 ../lab5_bsp/\libucosii_bsp.a(os_mem.o)
 .bss           0x0000000004735858        0x0 ../lab5_bsp/\libucosii_bsp.a(os_q.o)
 .bss           0x0000000004735858        0x0 ../lab5_bsp/\libucosii_bsp.a(os_sem.o)
 .bss           0x0000000004735858        0x0 ../lab5_bsp/\libucosii_bsp.a(os_task.o)
 .bss           0x0000000004735858        0x0 ../lab5_bsp/\libucosii_bsp.a(os_time.o)
 .bss           0x0000000004735858        0x0 ../lab5_bsp/\libucosii_bsp.a(alt_sys_init.o)
 .bss           0x0000000004735858        0x0 ../lab5_bsp/\libucosii_bsp.a(altera_avalon_jtag_uart_fd.o)
 .bss           0x0000000004735858        0x0 ../lab5_bsp/\libucosii_bsp.a(altera_avalon_jtag_uart_init.o)
 .bss           0x0000000004735858        0x0 ../lab5_bsp/\libucosii_bsp.a(altera_avalon_jtag_uart_ioctl.o)
 .bss           0x0000000004735858        0x0 ../lab5_bsp/\libucosii_bsp.a(altera_avalon_jtag_uart_read.o)
 .bss           0x0000000004735858        0x0 ../lab5_bsp/\libucosii_bsp.a(altera_avalon_jtag_uart_write.o)
 .bss           0x0000000004735858        0x0 ../lab5_bsp/\libucosii_bsp.a(altera_avalon_timer_sc.o)
 .bss           0x0000000004735858        0x0 ../lab5_bsp/\libucosii_bsp.a(alt_alarm_start.o)
 .bss           0x0000000004735858        0x0 ../lab5_bsp/\libucosii_bsp.a(alt_dev_llist_insert.o)
 .bss           0x0000000004735858        0x0 ../lab5_bsp/\libucosii_bsp.a(alt_do_ctors.o)
 .bss           0x0000000004735858        0x0 ../lab5_bsp/\libucosii_bsp.a(alt_do_dtors.o)
 .bss           0x0000000004735858        0x0 ../lab5_bsp/\libucosii_bsp.a(alt_exception_entry.o)
 .bss           0x0000000004735858        0x0 ../lab5_bsp/\libucosii_bsp.a(alt_icache_flush_all.o)
 .bss           0x0000000004735858        0x0 ../lab5_bsp/\libucosii_bsp.a(alt_io_redirect.o)
 .bss           0x0000000004735858        0x0 ../lab5_bsp/\libucosii_bsp.a(alt_open.o)
 .bss           0x0000000004735858        0x0 ../lab5_bsp/\libucosii_bsp.a(altera_nios2_qsys_irq.o)
 .bss           0x0000000004735858        0x0 ../lab5_bsp/\libucosii_bsp.a(os_cpu_a.o)
 .bss           0x0000000004735858        0x0 ../lab5_bsp/\libucosii_bsp.a(os_cpu_c.o)
 .bss           0x0000000004735858        0x0 ../lab5_bsp/\libucosii_bsp.a(alt_find_dev.o)
 .bss           0x0000000004735858        0x0 ../lab5_bsp/\libucosii_bsp.a(alt_find_file.o)
 .bss           0x0000000004735858        0x0 ../lab5_bsp/\libucosii_bsp.a(alt_get_fd.o)
 .bss           0x0000000004735858        0x0 ../lab5_bsp/\libucosii_bsp.a(alt_icache_flush.o)
 .bss           0x0000000004735858        0x0 c:/altera/14.1/nios2eds/bin/gnu/h-x86_64-mingw32/bin/../lib/gcc/nios2-elf/4.8.3/../../../../../H-x86_64-mingw32/nios2-elf/lib\libc.a(lib_a-atexit.o)
 .bss           0x0000000004735858        0x0 c:/altera/14.1/nios2eds/bin/gnu/h-x86_64-mingw32/bin/../lib/gcc/nios2-elf/4.8.3/../../../../../H-x86_64-mingw32/nios2-elf/lib\libc.a(lib_a-exit.o)
 .bss           0x0000000004735858        0x0 c:/altera/14.1/nios2eds/bin/gnu/h-x86_64-mingw32/bin/../lib/gcc/nios2-elf/4.8.3/../../../../../H-x86_64-mingw32/nios2-elf/lib\libc.a(lib_a-memcmp.o)
 .bss           0x0000000004735858        0x0 c:/altera/14.1/nios2eds/bin/gnu/h-x86_64-mingw32/bin/../lib/gcc/nios2-elf/4.8.3/../../../../../H-x86_64-mingw32/nios2-elf/lib\libc.a(lib_a-__atexit.o)
 .bss           0x0000000004735858        0x0 c:/altera/14.1/nios2eds/bin/gnu/h-x86_64-mingw32/bin/../lib/gcc/nios2-elf/4.8.3/../../../../../H-x86_64-mingw32/nios2-elf/lib\libc.a(lib_a-__call_atexit.o)
 .bss           0x0000000004735858        0x0 ../lab5_bsp/\libucosii_bsp.a(alt_exit.o)
 *(COMMON)
 COMMON         0x0000000004735858     0xc018 obj/default/hello_ucosii.o
                0x0000000004735858                task1_stk
                0x0000000004737858                buttons_control2
                0x0000000004737864                task4_stk
                0x0000000004739864                task6_stk
                0x000000000473b864                task2_stk
                0x000000000473d864                task3_stk
                0x000000000473f864                buttons_control1
                0x000000000473f870                task5_stk
 COMMON         0x0000000004741870      0x100 ../lab5_bsp/\libucosii_bsp.a(alt_irq_handler.o)
                0x0000000004741870                alt_irq
 COMMON         0x0000000004741970     0x3224 ../lab5_bsp/\libucosii_bsp.a(os_core.o)
                0x0000000004741970                OSFlagTbl
                0x0000000004741ce0                OSMemTbl
                0x0000000004742910                OSTaskStatStk
                0x0000000004743110                OSQTbl
                0x00000000047432f0                OSTaskIdleStk
                0x0000000004743af0                OSEventTbl
                0x0000000004744630                OSTCBTbl
                0x0000000004744b40                OSTCBPrioTbl
                0x0000000004744b94                . = ALIGN (0x4)
                0x0000000004744b94                __bss_end = ABSOLUTE (.)

.sdram          0x0000000004744b94        0x0
                0x0000000004744b94                PROVIDE (_alt_partition_sdram_start, ABSOLUTE (.))
 *(.sdram .sdram. sdram.*)
                0x0000000004744b94                . = ALIGN (0x4)
                0x0000000004744b94                PROVIDE (_alt_partition_sdram_end, ABSOLUTE (.))
                0x0000000004744b94                _end = ABSOLUTE (.)
                0x0000000004744b94                end = ABSOLUTE (.)
                0x0000000004744b94                __alt_stack_base = ABSOLUTE (.)
                0x0000000004744b94                PROVIDE (_alt_partition_sdram_load_addr, LOADADDR (.sdram))

.stab
 *(.stab)

.stabstr
 *(.stabstr)

.stab.excl
 *(.stab.excl)

.stab.exclstr
 *(.stab.exclstr)

.stab.index
 *(.stab.index)

.stab.indexstr
 *(.stab.indexstr)

.comment        0x0000000000000000       0x39
 *(.comment)
 .comment       0x0000000000000000       0x39 obj/default/drivers/drivers.o
                                         0x3a (size before relaxing)
 .comment       0x0000000000000000       0x3a obj/default/fonts/tahomabold_20.o
 .comment       0x0000000000000000       0x3a obj/default/fonts/tahomabold_32.o
 .comment       0x0000000000000000       0x3a obj/default/frame.o
 .comment       0x0000000000000000       0x3a obj/default/graphic_lib/draw_gimps.o
 .comment       0x0000000000000000       0x3a obj/default/graphic_lib/gimp_bmp.o
 .comment       0x0000000000000000       0x3a obj/default/graphic_lib/simple_graphics.o
 .comment       0x0000000000000000       0x3a obj/default/graphic_lib/simple_text.o
 .comment       0x0000000000000000       0x3a obj/default/hello_ucosii.o
 .comment       0x0000000000000000       0x3a obj/default/imagenes/back_down.o
 .comment       0x0000000000000000       0x3a obj/default/imagenes/back_up.o
 .comment       0x0000000000000000       0x3a obj/default/imagenes/ford_down.o
 .comment       0x0000000000000000       0x3a obj/default/imagenes/ford_up.o
 .comment       0x0000000000000000       0x3a obj/default/imagenes/pause_down.o
 .comment       0x0000000000000000       0x3a obj/default/imagenes/pause_up.o
 .comment       0x0000000000000000       0x3a obj/default/imagenes/play_down.o
 .comment       0x0000000000000000       0x3a obj/default/imagenes/play_up.o
 .comment       0x0000000000000000       0x3a obj/default/imagenes/stop_down.o
 .comment       0x0000000000000000       0x3a obj/default/imagenes/stop_up.o
 .comment       0x0000000000000000       0x3a obj/default/song/song.o
 .comment       0x0000000000000000       0x3a obj/default/student_code/student_code.o
 .comment       0x0000000000000000       0x3a obj/default/vip_fr.o
 .comment       0x0000000000000000       0x3a c:/altera/14.1/nios2eds/bin/gnu/h-x86_64-mingw32/bin/../lib/gcc/nios2-elf/4.8.3\libgcc.a(lib2-divmod.o)
 .comment       0x0000000000000000       0x3a c:/altera/14.1/nios2eds/bin/gnu/h-x86_64-mingw32/bin/../lib/gcc/nios2-elf/4.8.3\libgcc.a(fixsfsi.o)
 .comment       0x0000000000000000       0x3a c:/altera/14.1/nios2eds/bin/gnu/h-x86_64-mingw32/bin/../lib/gcc/nios2-elf/4.8.3/../../../../../H-x86_64-mingw32/nios2-elf/lib\libc.a(lib_a-malloc.o)
 .comment       0x0000000000000000       0x3a c:/altera/14.1/nios2eds/bin/gnu/h-x86_64-mingw32/bin/../lib/gcc/nios2-elf/4.8.3/../../../../../H-x86_64-mingw32/nios2-elf/lib\libc.a(lib_a-mallocr.o)
 .comment       0x0000000000000000       0x3a c:/altera/14.1/nios2eds/bin/gnu/h-x86_64-mingw32/bin/../lib/gcc/nios2-elf/4.8.3/../../../../../H-x86_64-mingw32/nios2-elf/lib\libc.a(lib_a-memcpy.o)
 .comment       0x0000000000000000       0x3a c:/altera/14.1/nios2eds/bin/gnu/h-x86_64-mingw32/bin/../lib/gcc/nios2-elf/4.8.3/../../../../../H-x86_64-mingw32/nios2-elf/lib\libc.a(lib_a-memset.o)
 .comment       0x0000000000000000       0x3a c:/altera/14.1/nios2eds/bin/gnu/h-x86_64-mingw32/bin/../lib/gcc/nios2-elf/4.8.3/../../../../../H-x86_64-mingw32/nios2-elf/lib\libc.a(lib_a-printf.o)
 .comment       0x0000000000000000       0x3a c:/altera/14.1/nios2eds/bin/gnu/h-x86_64-mingw32/bin/../lib/gcc/nios2-elf/4.8.3/../../../../../H-x86_64-mingw32/nios2-elf/lib\libc.a(lib_a-sbrkr.o)
 .comment       0x0000000000000000       0x3a c:/altera/14.1/nios2eds/bin/gnu/h-x86_64-mingw32/bin/../lib/gcc/nios2-elf/4.8.3/../../../../../H-x86_64-mingw32/nios2-elf/lib\libc.a(lib_a-strcpy.o)
 .comment       0x0000000000000000       0x3a c:/altera/14.1/nios2eds/bin/gnu/h-x86_64-mingw32/bin/../lib/gcc/nios2-elf/4.8.3/../../../../../H-x86_64-mingw32/nios2-elf/lib\libc.a(lib_a-strlen.o)
 .comment       0x0000000000000000       0x3a c:/altera/14.1/nios2eds/bin/gnu/h-x86_64-mingw32/bin/../lib/gcc/nios2-elf/4.8.3/../../../../../H-x86_64-mingw32/nios2-elf/lib\libc.a(lib_a-vfprintf.o)
 .comment       0x0000000000000000       0x3a c:/altera/14.1/nios2eds/bin/gnu/h-x86_64-mingw32/bin/../lib/gcc/nios2-elf/4.8.3/../../../../../H-x86_64-mingw32/nios2-elf/lib\libc.a(lib_a-wsetup.o)
 .comment       0x0000000000000000       0x3a c:/altera/14.1/nios2eds/bin/gnu/h-x86_64-mingw32/bin/../lib/gcc/nios2-elf/4.8.3/../../../../../H-x86_64-mingw32/nios2-elf/lib\libc.a(lib_a-dtoa.o)
 .comment       0x0000000000000000       0x3a c:/altera/14.1/nios2eds/bin/gnu/h-x86_64-mingw32/bin/../lib/gcc/nios2-elf/4.8.3/../../../../../H-x86_64-mingw32/nios2-elf/lib\libc.a(lib_a-fflush.o)
 .comment       0x0000000000000000       0x3a c:/altera/14.1/nios2eds/bin/gnu/h-x86_64-mingw32/bin/../lib/gcc/nios2-elf/4.8.3/../../../../../H-x86_64-mingw32/nios2-elf/lib\libc.a(lib_a-findfp.o)
 .comment       0x0000000000000000       0x3a c:/altera/14.1/nios2eds/bin/gnu/h-x86_64-mingw32/bin/../lib/gcc/nios2-elf/4.8.3/../../../../../H-x86_64-mingw32/nios2-elf/lib\libc.a(lib_a-freer.o)
 .comment       0x0000000000000000       0x3a c:/altera/14.1/nios2eds/bin/gnu/h-x86_64-mingw32/bin/../lib/gcc/nios2-elf/4.8.3/../../../../../H-x86_64-mingw32/nios2-elf/lib\libc.a(lib_a-fwalk.o)
 .comment       0x0000000000000000       0x3a c:/altera/14.1/nios2eds/bin/gnu/h-x86_64-mingw32/bin/../lib/gcc/nios2-elf/4.8.3/../../../../../H-x86_64-mingw32/nios2-elf/lib\libc.a(lib_a-impure.o)
 .comment       0x0000000000000000       0x3a c:/altera/14.1/nios2eds/bin/gnu/h-x86_64-mingw32/bin/../lib/gcc/nios2-elf/4.8.3/../../../../../H-x86_64-mingw32/nios2-elf/lib\libc.a(lib_a-int_errno.o)
 .comment       0x0000000000000000       0x3a c:/altera/14.1/nios2eds/bin/gnu/h-x86_64-mingw32/bin/../lib/gcc/nios2-elf/4.8.3/../../../../../H-x86_64-mingw32/nios2-elf/lib\libc.a(lib_a-locale.o)
 .comment       0x0000000000000000       0x3a c:/altera/14.1/nios2eds/bin/gnu/h-x86_64-mingw32/bin/../lib/gcc/nios2-elf/4.8.3/../../../../../H-x86_64-mingw32/nios2-elf/lib\libc.a(lib_a-makebuf.o)
 .comment       0x0000000000000000       0x3a c:/altera/14.1/nios2eds/bin/gnu/h-x86_64-mingw32/bin/../lib/gcc/nios2-elf/4.8.3/../../../../../H-x86_64-mingw32/nios2-elf/lib\libc.a(lib_a-memchr.o)
 .comment       0x0000000000000000       0x3a c:/altera/14.1/nios2eds/bin/gnu/h-x86_64-mingw32/bin/../lib/gcc/nios2-elf/4.8.3/../../../../../H-x86_64-mingw32/nios2-elf/lib\libc.a(lib_a-mprec.o)
 .comment       0x0000000000000000       0x3a c:/altera/14.1/nios2eds/bin/gnu/h-x86_64-mingw32/bin/../lib/gcc/nios2-elf/4.8.3/../../../../../H-x86_64-mingw32/nios2-elf/lib\libc.a(lib_a-s_fpclassify.o)
 .comment       0x0000000000000000       0x3a c:/altera/14.1/nios2eds/bin/gnu/h-x86_64-mingw32/bin/../lib/gcc/nios2-elf/4.8.3/../../../../../H-x86_64-mingw32/nios2-elf/lib\libc.a(lib_a-stdio.o)
 .comment       0x0000000000000000       0x3a c:/altera/14.1/nios2eds/bin/gnu/h-x86_64-mingw32/bin/../lib/gcc/nios2-elf/4.8.3/../../../../../H-x86_64-mingw32/nios2-elf/lib\libc.a(lib_a-strcmp.o)
 .comment       0x0000000000000000       0x3a c:/altera/14.1/nios2eds/bin/gnu/h-x86_64-mingw32/bin/../lib/gcc/nios2-elf/4.8.3/../../../../../H-x86_64-mingw32/nios2-elf/lib\libc.a(lib_a-vfiprintf.o)
 .comment       0x0000000000000000       0x3a c:/altera/14.1/nios2eds/bin/gnu/h-x86_64-mingw32/bin/../lib/gcc/nios2-elf/4.8.3/../../../../../H-x86_64-mingw32/nios2-elf/lib\libc.a(lib_a-writer.o)
 .comment       0x0000000000000000       0x3a c:/altera/14.1/nios2eds/bin/gnu/h-x86_64-mingw32/bin/../lib/gcc/nios2-elf/4.8.3/../../../../../H-x86_64-mingw32/nios2-elf/lib\libc.a(closer.o)
 .comment       0x0000000000000000       0x3a c:/altera/14.1/nios2eds/bin/gnu/h-x86_64-mingw32/bin/../lib/gcc/nios2-elf/4.8.3/../../../../../H-x86_64-mingw32/nios2-elf/lib\libc.a(lib_a-callocr.o)
 .comment       0x0000000000000000       0x3a c:/altera/14.1/nios2eds/bin/gnu/h-x86_64-mingw32/bin/../lib/gcc/nios2-elf/4.8.3/../../../../../H-x86_64-mingw32/nios2-elf/lib\libc.a(lib_a-fclose.o)
 .comment       0x0000000000000000       0x3a c:/altera/14.1/nios2eds/bin/gnu/h-x86_64-mingw32/bin/../lib/gcc/nios2-elf/4.8.3/../../../../../H-x86_64-mingw32/nios2-elf/lib\libc.a(lib_a-fputwc.o)
 .comment       0x0000000000000000       0x3a c:/altera/14.1/nios2eds/bin/gnu/h-x86_64-mingw32/bin/../lib/gcc/nios2-elf/4.8.3/../../../../../H-x86_64-mingw32/nios2-elf/lib\libc.a(lib_a-fstatr.o)
 .comment       0x0000000000000000       0x3a c:/altera/14.1/nios2eds/bin/gnu/h-x86_64-mingw32/bin/../lib/gcc/nios2-elf/4.8.3/../../../../../H-x86_64-mingw32/nios2-elf/lib\libc.a(lib_a-fvwrite.o)
 .comment       0x0000000000000000       0x3a c:/altera/14.1/nios2eds/bin/gnu/h-x86_64-mingw32/bin/../lib/gcc/nios2-elf/4.8.3/../../../../../H-x86_64-mingw32/nios2-elf/lib\libc.a(lib_a-isattyr.o)
 .comment       0x0000000000000000       0x3a c:/altera/14.1/nios2eds/bin/gnu/h-x86_64-mingw32/bin/../lib/gcc/nios2-elf/4.8.3/../../../../../H-x86_64-mingw32/nios2-elf/lib\libc.a(lib_a-lseekr.o)
 .comment       0x0000000000000000       0x3a c:/altera/14.1/nios2eds/bin/gnu/h-x86_64-mingw32/bin/../lib/gcc/nios2-elf/4.8.3/../../../../../H-x86_64-mingw32/nios2-elf/lib\libc.a(lib_a-memmove.o)
 .comment       0x0000000000000000       0x3a c:/altera/14.1/nios2eds/bin/gnu/h-x86_64-mingw32/bin/../lib/gcc/nios2-elf/4.8.3/../../../../../H-x86_64-mingw32/nios2-elf/lib\libc.a(lib_a-readr.o)
 .comment       0x0000000000000000       0x3a c:/altera/14.1/nios2eds/bin/gnu/h-x86_64-mingw32/bin/../lib/gcc/nios2-elf/4.8.3/../../../../../H-x86_64-mingw32/nios2-elf/lib\libc.a(lib_a-reallocr.o)
 .comment       0x0000000000000000       0x3a c:/altera/14.1/nios2eds/bin/gnu/h-x86_64-mingw32/bin/../lib/gcc/nios2-elf/4.8.3/../../../../../H-x86_64-mingw32/nios2-elf/lib\libc.a(lib_a-wbuf.o)
 .comment       0x0000000000000000       0x3a c:/altera/14.1/nios2eds/bin/gnu/h-x86_64-mingw32/bin/../lib/gcc/nios2-elf/4.8.3/../../../../../H-x86_64-mingw32/nios2-elf/lib\libc.a(lib_a-wcrtomb.o)
 .comment       0x0000000000000000       0x3a c:/altera/14.1/nios2eds/bin/gnu/h-x86_64-mingw32/bin/../lib/gcc/nios2-elf/4.8.3/../../../../../H-x86_64-mingw32/nios2-elf/lib\libc.a(lib_a-wctomb_r.o)
 .comment       0x0000000000000000       0x3a c:/altera/14.1/nios2eds/bin/gnu/h-x86_64-mingw32/bin/../lib/gcc/nios2-elf/4.8.3\libgcc.a(_udivdi3.o)
 .comment       0x0000000000000000       0x3a c:/altera/14.1/nios2eds/bin/gnu/h-x86_64-mingw32/bin/../lib/gcc/nios2-elf/4.8.3\libgcc.a(_umoddi3.o)
 .comment       0x0000000000000000       0x3a c:/altera/14.1/nios2eds/bin/gnu/h-x86_64-mingw32/bin/../lib/gcc/nios2-elf/4.8.3\libgcc.a(adddf3.o)
 .comment       0x0000000000000000       0x3a c:/altera/14.1/nios2eds/bin/gnu/h-x86_64-mingw32/bin/../lib/gcc/nios2-elf/4.8.3\libgcc.a(divdf3.o)
 .comment       0x0000000000000000       0x3a c:/altera/14.1/nios2eds/bin/gnu/h-x86_64-mingw32/bin/../lib/gcc/nios2-elf/4.8.3\libgcc.a(eqdf2.o)
 .comment       0x0000000000000000       0x3a c:/altera/14.1/nios2eds/bin/gnu/h-x86_64-mingw32/bin/../lib/gcc/nios2-elf/4.8.3\libgcc.a(gedf2.o)
 .comment       0x0000000000000000       0x3a c:/altera/14.1/nios2eds/bin/gnu/h-x86_64-mingw32/bin/../lib/gcc/nios2-elf/4.8.3\libgcc.a(ledf2.o)
 .comment       0x0000000000000000       0x3a c:/altera/14.1/nios2eds/bin/gnu/h-x86_64-mingw32/bin/../lib/gcc/nios2-elf/4.8.3\libgcc.a(muldf3.o)
 .comment       0x0000000000000000       0x3a c:/altera/14.1/nios2eds/bin/gnu/h-x86_64-mingw32/bin/../lib/gcc/nios2-elf/4.8.3\libgcc.a(subdf3.o)
 .comment       0x0000000000000000       0x3a c:/altera/14.1/nios2eds/bin/gnu/h-x86_64-mingw32/bin/../lib/gcc/nios2-elf/4.8.3\libgcc.a(fixdfsi.o)
 .comment       0x0000000000000000       0x3a c:/altera/14.1/nios2eds/bin/gnu/h-x86_64-mingw32/bin/../lib/gcc/nios2-elf/4.8.3\libgcc.a(floatsidf.o)
 .comment       0x0000000000000000       0x3a c:/altera/14.1/nios2eds/bin/gnu/h-x86_64-mingw32/bin/../lib/gcc/nios2-elf/4.8.3\libgcc.a(floatunsidf.o)
 .comment       0x0000000000000000       0x3a c:/altera/14.1/nios2eds/bin/gnu/h-x86_64-mingw32/bin/../lib/gcc/nios2-elf/4.8.3\libgcc.a(_clz.o)
 .comment       0x0000000000000000       0x3a c:/altera/14.1/nios2eds/bin/gnu/h-x86_64-mingw32/bin/../lib/gcc/nios2-elf/4.8.3\libgcc.a(_clzsi2.o)
 .comment       0x0000000000000000       0x3a ../lab5_bsp/\libucosii_bsp.a(alt_close.o)
 .comment       0x0000000000000000       0x3a ../lab5_bsp/\libucosii_bsp.a(alt_dcache_flush_all.o)
 .comment       0x0000000000000000       0x3a ../lab5_bsp/\libucosii_bsp.a(alt_dev.o)
 .comment       0x0000000000000000       0x3a ../lab5_bsp/\libucosii_bsp.a(alt_errno.o)
 .comment       0x0000000000000000       0x3a ../lab5_bsp/\libucosii_bsp.a(alt_fstat.o)
 .comment       0x0000000000000000       0x3a ../lab5_bsp/\libucosii_bsp.a(alt_iic.o)
 .comment       0x0000000000000000       0x3a ../lab5_bsp/\libucosii_bsp.a(alt_iic_isr_register.o)
 .comment       0x0000000000000000       0x3a ../lab5_bsp/\libucosii_bsp.a(alt_irq_handler.o)
 .comment       0x0000000000000000       0x3a ../lab5_bsp/\libucosii_bsp.a(alt_irq_vars.o)
 .comment       0x0000000000000000       0x3a ../lab5_bsp/\libucosii_bsp.a(alt_isatty.o)
 .comment       0x0000000000000000       0x3a ../lab5_bsp/\libucosii_bsp.a(alt_load.o)
 .comment       0x0000000000000000       0x3a ../lab5_bsp/\libucosii_bsp.a(alt_lseek.o)
 .comment       0x0000000000000000       0x3a ../lab5_bsp/\libucosii_bsp.a(alt_main.o)
 .comment       0x0000000000000000       0x3a ../lab5_bsp/\libucosii_bsp.a(alt_read.o)
 .comment       0x0000000000000000       0x3a ../lab5_bsp/\libucosii_bsp.a(alt_release_fd.o)
 .comment       0x0000000000000000       0x3a ../lab5_bsp/\libucosii_bsp.a(alt_sbrk.o)
 .comment       0x0000000000000000       0x3a ../lab5_bsp/\libucosii_bsp.a(alt_tick.o)
 .comment       0x0000000000000000       0x3a ../lab5_bsp/\libucosii_bsp.a(alt_write.o)
 .comment       0x0000000000000000       0x3a ../lab5_bsp/\libucosii_bsp.a(alt_env_lock.o)
 .comment       0x0000000000000000       0x3a ../lab5_bsp/\libucosii_bsp.a(alt_malloc_lock.o)
 .comment       0x0000000000000000       0x3a ../lab5_bsp/\libucosii_bsp.a(os_core.o)
 .comment       0x0000000000000000       0x3a ../lab5_bsp/\libucosii_bsp.a(os_dbg.o)
 .comment       0x0000000000000000       0x3a ../lab5_bsp/\libucosii_bsp.a(os_flag.o)
 .comment       0x0000000000000000       0x3a ../lab5_bsp/\libucosii_bsp.a(os_mem.o)
 .comment       0x0000000000000000       0x3a ../lab5_bsp/\libucosii_bsp.a(os_q.o)
 .comment       0x0000000000000000       0x3a ../lab5_bsp/\libucosii_bsp.a(os_sem.o)
 .comment       0x0000000000000000       0x3a ../lab5_bsp/\libucosii_bsp.a(os_task.o)
 .comment       0x0000000000000000       0x3a ../lab5_bsp/\libucosii_bsp.a(os_time.o)
 .comment       0x0000000000000000       0x3a ../lab5_bsp/\libucosii_bsp.a(alt_sys_init.o)
 .comment       0x0000000000000000       0x3a ../lab5_bsp/\libucosii_bsp.a(altera_avalon_jtag_uart_fd.o)
 .comment       0x0000000000000000       0x3a ../lab5_bsp/\libucosii_bsp.a(altera_avalon_jtag_uart_init.o)
 .comment       0x0000000000000000       0x3a ../lab5_bsp/\libucosii_bsp.a(altera_avalon_jtag_uart_ioctl.o)
 .comment       0x0000000000000000       0x3a ../lab5_bsp/\libucosii_bsp.a(altera_avalon_jtag_uart_read.o)
 .comment       0x0000000000000000       0x3a ../lab5_bsp/\libucosii_bsp.a(altera_avalon_jtag_uart_write.o)
 .comment       0x0000000000000000       0x3a ../lab5_bsp/\libucosii_bsp.a(altera_avalon_timer_sc.o)
 .comment       0x0000000000000000       0x3a ../lab5_bsp/\libucosii_bsp.a(alt_alarm_start.o)
 .comment       0x0000000000000000       0x3a ../lab5_bsp/\libucosii_bsp.a(alt_dev_llist_insert.o)
 .comment       0x0000000000000000       0x3a ../lab5_bsp/\libucosii_bsp.a(alt_do_ctors.o)
 .comment       0x0000000000000000       0x3a ../lab5_bsp/\libucosii_bsp.a(alt_do_dtors.o)
 .comment       0x0000000000000000       0x3a ../lab5_bsp/\libucosii_bsp.a(alt_icache_flush_all.o)
 .comment       0x0000000000000000       0x3a ../lab5_bsp/\libucosii_bsp.a(alt_io_redirect.o)
 .comment       0x0000000000000000       0x3a ../lab5_bsp/\libucosii_bsp.a(alt_open.o)
 .comment       0x0000000000000000       0x3a ../lab5_bsp/\libucosii_bsp.a(altera_nios2_qsys_irq.o)
 .comment       0x0000000000000000       0x3a ../lab5_bsp/\libucosii_bsp.a(os_cpu_c.o)
 .comment       0x0000000000000000       0x3a ../lab5_bsp/\libucosii_bsp.a(alt_find_dev.o)
 .comment       0x0000000000000000       0x3a ../lab5_bsp/\libucosii_bsp.a(alt_find_file.o)
 .comment       0x0000000000000000       0x3a ../lab5_bsp/\libucosii_bsp.a(alt_get_fd.o)
 .comment       0x0000000000000000       0x3a ../lab5_bsp/\libucosii_bsp.a(alt_icache_flush.o)
 .comment       0x0000000000000000       0x3a c:/altera/14.1/nios2eds/bin/gnu/h-x86_64-mingw32/bin/../lib/gcc/nios2-elf/4.8.3/../../../../../H-x86_64-mingw32/nios2-elf/lib\libc.a(lib_a-atexit.o)
 .comment       0x0000000000000000       0x3a c:/altera/14.1/nios2eds/bin/gnu/h-x86_64-mingw32/bin/../lib/gcc/nios2-elf/4.8.3/../../../../../H-x86_64-mingw32/nios2-elf/lib\libc.a(lib_a-exit.o)
 .comment       0x0000000000000000       0x3a c:/altera/14.1/nios2eds/bin/gnu/h-x86_64-mingw32/bin/../lib/gcc/nios2-elf/4.8.3/../../../../../H-x86_64-mingw32/nios2-elf/lib\libc.a(lib_a-memcmp.o)
 .comment       0x0000000000000000       0x3a c:/altera/14.1/nios2eds/bin/gnu/h-x86_64-mingw32/bin/../lib/gcc/nios2-elf/4.8.3/../../../../../H-x86_64-mingw32/nios2-elf/lib\libc.a(lib_a-__atexit.o)
 .comment       0x0000000000000000       0x3a c:/altera/14.1/nios2eds/bin/gnu/h-x86_64-mingw32/bin/../lib/gcc/nios2-elf/4.8.3/../../../../../H-x86_64-mingw32/nios2-elf/lib\libc.a(lib_a-__call_atexit.o)
 .comment       0x0000000000000000       0x3a ../lab5_bsp/\libucosii_bsp.a(alt_exit.o)

.debug
 *(.debug)

.line
 *(.line)

.debug_srcinfo
 *(.debug_srcinfo)

.debug_sfnames
 *(.debug_sfnames)

.debug_aranges  0x0000000000000000     0x10a0
 *(.debug_aranges)
 .debug_aranges
                0x0000000000000000       0x28 ../lab5_bsp//obj/HAL/src/crt0.o
 .debug_aranges
                0x0000000000000028       0x20 obj/default/drivers/drivers.o
 .debug_aranges
                0x0000000000000048       0x18 obj/default/fonts/tahomabold_20.o
 .debug_aranges
                0x0000000000000060       0x18 obj/default/fonts/tahomabold_32.o
 .debug_aranges
                0x0000000000000078       0x20 obj/default/frame.o
 .debug_aranges
                0x0000000000000098       0x20 obj/default/graphic_lib/draw_gimps.o
 .debug_aranges
                0x00000000000000b8       0x20 obj/default/graphic_lib/gimp_bmp.o
 .debug_aranges
                0x00000000000000d8       0x20 obj/default/graphic_lib/simple_graphics.o
 .debug_aranges
                0x00000000000000f8       0x20 obj/default/graphic_lib/simple_text.o
 .debug_aranges
                0x0000000000000118       0x20 obj/default/hello_ucosii.o
 .debug_aranges
                0x0000000000000138       0x18 obj/default/imagenes/back_down.o
 .debug_aranges
                0x0000000000000150       0x18 obj/default/imagenes/back_up.o
 .debug_aranges
                0x0000000000000168       0x18 obj/default/imagenes/ford_down.o
 .debug_aranges
                0x0000000000000180       0x18 obj/default/imagenes/ford_up.o
 .debug_aranges
                0x0000000000000198       0x18 obj/default/imagenes/pause_down.o
 .debug_aranges
                0x00000000000001b0       0x18 obj/default/imagenes/pause_up.o
 .debug_aranges
                0x00000000000001c8       0x18 obj/default/imagenes/play_down.o
 .debug_aranges
                0x00000000000001e0       0x18 obj/default/imagenes/play_up.o
 .debug_aranges
                0x00000000000001f8       0x18 obj/default/imagenes/stop_down.o
 .debug_aranges
                0x0000000000000210       0x18 obj/default/imagenes/stop_up.o
 .debug_aranges
                0x0000000000000228       0x18 obj/default/song/song.o
 .debug_aranges
                0x0000000000000240       0x20 obj/default/student_code/student_code.o
 .debug_aranges
                0x0000000000000260       0x20 obj/default/vip_fr.o
 .debug_aranges
                0x0000000000000280       0x20 c:/altera/14.1/nios2eds/bin/gnu/h-x86_64-mingw32/bin/../lib/gcc/nios2-elf/4.8.3\libgcc.a(lib2-divmod.o)
 .debug_aranges
                0x00000000000002a0       0x20 c:/altera/14.1/nios2eds/bin/gnu/h-x86_64-mingw32/bin/../lib/gcc/nios2-elf/4.8.3\libgcc.a(fixsfsi.o)
 .debug_aranges
                0x00000000000002c0       0x20 c:/altera/14.1/nios2eds/bin/gnu/h-x86_64-mingw32/bin/../lib/gcc/nios2-elf/4.8.3/../../../../../H-x86_64-mingw32/nios2-elf/lib\libc.a(lib_a-malloc.o)
 .debug_aranges
                0x00000000000002e0       0x20 c:/altera/14.1/nios2eds/bin/gnu/h-x86_64-mingw32/bin/../lib/gcc/nios2-elf/4.8.3/../../../../../H-x86_64-mingw32/nios2-elf/lib\libc.a(lib_a-mallocr.o)
 .debug_aranges
                0x0000000000000300       0x20 c:/altera/14.1/nios2eds/bin/gnu/h-x86_64-mingw32/bin/../lib/gcc/nios2-elf/4.8.3/../../../../../H-x86_64-mingw32/nios2-elf/lib\libc.a(lib_a-memcpy.o)
 .debug_aranges
                0x0000000000000320       0x20 c:/altera/14.1/nios2eds/bin/gnu/h-x86_64-mingw32/bin/../lib/gcc/nios2-elf/4.8.3/../../../../../H-x86_64-mingw32/nios2-elf/lib\libc.a(lib_a-memset.o)
 .debug_aranges
                0x0000000000000340       0x20 c:/altera/14.1/nios2eds/bin/gnu/h-x86_64-mingw32/bin/../lib/gcc/nios2-elf/4.8.3/../../../../../H-x86_64-mingw32/nios2-elf/lib\libc.a(lib_a-printf.o)
 .debug_aranges
                0x0000000000000360       0x20 c:/altera/14.1/nios2eds/bin/gnu/h-x86_64-mingw32/bin/../lib/gcc/nios2-elf/4.8.3/../../../../../H-x86_64-mingw32/nios2-elf/lib\libc.a(lib_a-sbrkr.o)
 .debug_aranges
                0x0000000000000380       0x20 c:/altera/14.1/nios2eds/bin/gnu/h-x86_64-mingw32/bin/../lib/gcc/nios2-elf/4.8.3/../../../../../H-x86_64-mingw32/nios2-elf/lib\libc.a(lib_a-strcpy.o)
 .debug_aranges
                0x00000000000003a0       0x20 c:/altera/14.1/nios2eds/bin/gnu/h-x86_64-mingw32/bin/../lib/gcc/nios2-elf/4.8.3/../../../../../H-x86_64-mingw32/nios2-elf/lib\libc.a(lib_a-strlen.o)
 .debug_aranges
                0x00000000000003c0       0x20 c:/altera/14.1/nios2eds/bin/gnu/h-x86_64-mingw32/bin/../lib/gcc/nios2-elf/4.8.3/../../../../../H-x86_64-mingw32/nios2-elf/lib\libc.a(lib_a-vfprintf.o)
 .debug_aranges
                0x00000000000003e0       0x20 c:/altera/14.1/nios2eds/bin/gnu/h-x86_64-mingw32/bin/../lib/gcc/nios2-elf/4.8.3/../../../../../H-x86_64-mingw32/nios2-elf/lib\libc.a(lib_a-wsetup.o)
 .debug_aranges
                0x0000000000000400       0x20 c:/altera/14.1/nios2eds/bin/gnu/h-x86_64-mingw32/bin/../lib/gcc/nios2-elf/4.8.3/../../../../../H-x86_64-mingw32/nios2-elf/lib\libc.a(lib_a-dtoa.o)
 .debug_aranges
                0x0000000000000420       0x20 c:/altera/14.1/nios2eds/bin/gnu/h-x86_64-mingw32/bin/../lib/gcc/nios2-elf/4.8.3/../../../../../H-x86_64-mingw32/nios2-elf/lib\libc.a(lib_a-fflush.o)
 .debug_aranges
                0x0000000000000440       0x20 c:/altera/14.1/nios2eds/bin/gnu/h-x86_64-mingw32/bin/../lib/gcc/nios2-elf/4.8.3/../../../../../H-x86_64-mingw32/nios2-elf/lib\libc.a(lib_a-findfp.o)
 .debug_aranges
                0x0000000000000460       0x20 c:/altera/14.1/nios2eds/bin/gnu/h-x86_64-mingw32/bin/../lib/gcc/nios2-elf/4.8.3/../../../../../H-x86_64-mingw32/nios2-elf/lib\libc.a(lib_a-freer.o)
 .debug_aranges
                0x0000000000000480       0x20 c:/altera/14.1/nios2eds/bin/gnu/h-x86_64-mingw32/bin/../lib/gcc/nios2-elf/4.8.3/../../../../../H-x86_64-mingw32/nios2-elf/lib\libc.a(lib_a-fwalk.o)
 .debug_aranges
                0x00000000000004a0       0x18 c:/altera/14.1/nios2eds/bin/gnu/h-x86_64-mingw32/bin/../lib/gcc/nios2-elf/4.8.3/../../../../../H-x86_64-mingw32/nios2-elf/lib\libc.a(lib_a-impure.o)
 .debug_aranges
                0x00000000000004b8       0x18 c:/altera/14.1/nios2eds/bin/gnu/h-x86_64-mingw32/bin/../lib/gcc/nios2-elf/4.8.3/../../../../../H-x86_64-mingw32/nios2-elf/lib\libc.a(lib_a-int_errno.o)
 .debug_aranges
                0x00000000000004d0       0x20 c:/altera/14.1/nios2eds/bin/gnu/h-x86_64-mingw32/bin/../lib/gcc/nios2-elf/4.8.3/../../../../../H-x86_64-mingw32/nios2-elf/lib\libc.a(lib_a-locale.o)
 .debug_aranges
                0x00000000000004f0       0x20 c:/altera/14.1/nios2eds/bin/gnu/h-x86_64-mingw32/bin/../lib/gcc/nios2-elf/4.8.3/../../../../../H-x86_64-mingw32/nios2-elf/lib\libc.a(lib_a-makebuf.o)
 .debug_aranges
                0x0000000000000510       0x20 c:/altera/14.1/nios2eds/bin/gnu/h-x86_64-mingw32/bin/../lib/gcc/nios2-elf/4.8.3/../../../../../H-x86_64-mingw32/nios2-elf/lib\libc.a(lib_a-memchr.o)
 .debug_aranges
                0x0000000000000530       0x20 c:/altera/14.1/nios2eds/bin/gnu/h-x86_64-mingw32/bin/../lib/gcc/nios2-elf/4.8.3/../../../../../H-x86_64-mingw32/nios2-elf/lib\libc.a(lib_a-mprec.o)
 .debug_aranges
                0x0000000000000550       0x20 c:/altera/14.1/nios2eds/bin/gnu/h-x86_64-mingw32/bin/../lib/gcc/nios2-elf/4.8.3/../../../../../H-x86_64-mingw32/nios2-elf/lib\libc.a(lib_a-s_fpclassify.o)
 .debug_aranges
                0x0000000000000570       0x20 c:/altera/14.1/nios2eds/bin/gnu/h-x86_64-mingw32/bin/../lib/gcc/nios2-elf/4.8.3/../../../../../H-x86_64-mingw32/nios2-elf/lib\libc.a(lib_a-stdio.o)
 .debug_aranges
                0x0000000000000590       0x20 c:/altera/14.1/nios2eds/bin/gnu/h-x86_64-mingw32/bin/../lib/gcc/nios2-elf/4.8.3/../../../../../H-x86_64-mingw32/nios2-elf/lib\libc.a(lib_a-strcmp.o)
 .debug_aranges
                0x00000000000005b0       0x20 c:/altera/14.1/nios2eds/bin/gnu/h-x86_64-mingw32/bin/../lib/gcc/nios2-elf/4.8.3/../../../../../H-x86_64-mingw32/nios2-elf/lib\libc.a(lib_a-vfiprintf.o)
 .debug_aranges
                0x00000000000005d0       0x20 c:/altera/14.1/nios2eds/bin/gnu/h-x86_64-mingw32/bin/../lib/gcc/nios2-elf/4.8.3/../../../../../H-x86_64-mingw32/nios2-elf/lib\libc.a(lib_a-writer.o)
 .debug_aranges
                0x00000000000005f0       0x20 c:/altera/14.1/nios2eds/bin/gnu/h-x86_64-mingw32/bin/../lib/gcc/nios2-elf/4.8.3/../../../../../H-x86_64-mingw32/nios2-elf/lib\libc.a(closer.o)
 .debug_aranges
                0x0000000000000610       0x20 c:/altera/14.1/nios2eds/bin/gnu/h-x86_64-mingw32/bin/../lib/gcc/nios2-elf/4.8.3/../../../../../H-x86_64-mingw32/nios2-elf/lib\libc.a(lib_a-callocr.o)
 .debug_aranges
                0x0000000000000630       0x20 c:/altera/14.1/nios2eds/bin/gnu/h-x86_64-mingw32/bin/../lib/gcc/nios2-elf/4.8.3/../../../../../H-x86_64-mingw32/nios2-elf/lib\libc.a(lib_a-fclose.o)
 .debug_aranges
                0x0000000000000650       0x20 c:/altera/14.1/nios2eds/bin/gnu/h-x86_64-mingw32/bin/../lib/gcc/nios2-elf/4.8.3/../../../../../H-x86_64-mingw32/nios2-elf/lib\libc.a(lib_a-fputwc.o)
 .debug_aranges
                0x0000000000000670       0x20 c:/altera/14.1/nios2eds/bin/gnu/h-x86_64-mingw32/bin/../lib/gcc/nios2-elf/4.8.3/../../../../../H-x86_64-mingw32/nios2-elf/lib\libc.a(lib_a-fstatr.o)
 .debug_aranges
                0x0000000000000690       0x20 c:/altera/14.1/nios2eds/bin/gnu/h-x86_64-mingw32/bin/../lib/gcc/nios2-elf/4.8.3/../../../../../H-x86_64-mingw32/nios2-elf/lib\libc.a(lib_a-fvwrite.o)
 .debug_aranges
                0x00000000000006b0       0x20 c:/altera/14.1/nios2eds/bin/gnu/h-x86_64-mingw32/bin/../lib/gcc/nios2-elf/4.8.3/../../../../../H-x86_64-mingw32/nios2-elf/lib\libc.a(lib_a-isattyr.o)
 .debug_aranges
                0x00000000000006d0       0x20 c:/altera/14.1/nios2eds/bin/gnu/h-x86_64-mingw32/bin/../lib/gcc/nios2-elf/4.8.3/../../../../../H-x86_64-mingw32/nios2-elf/lib\libc.a(lib_a-lseekr.o)
 .debug_aranges
                0x00000000000006f0       0x20 c:/altera/14.1/nios2eds/bin/gnu/h-x86_64-mingw32/bin/../lib/gcc/nios2-elf/4.8.3/../../../../../H-x86_64-mingw32/nios2-elf/lib\libc.a(lib_a-memmove.o)
 .debug_aranges
                0x0000000000000710       0x20 c:/altera/14.1/nios2eds/bin/gnu/h-x86_64-mingw32/bin/../lib/gcc/nios2-elf/4.8.3/../../../../../H-x86_64-mingw32/nios2-elf/lib\libc.a(lib_a-readr.o)
 .debug_aranges
                0x0000000000000730       0x20 c:/altera/14.1/nios2eds/bin/gnu/h-x86_64-mingw32/bin/../lib/gcc/nios2-elf/4.8.3/../../../../../H-x86_64-mingw32/nios2-elf/lib\libc.a(lib_a-reallocr.o)
 .debug_aranges
                0x0000000000000750       0x20 c:/altera/14.1/nios2eds/bin/gnu/h-x86_64-mingw32/bin/../lib/gcc/nios2-elf/4.8.3/../../../../../H-x86_64-mingw32/nios2-elf/lib\libc.a(lib_a-wbuf.o)
 .debug_aranges
                0x0000000000000770       0x20 c:/altera/14.1/nios2eds/bin/gnu/h-x86_64-mingw32/bin/../lib/gcc/nios2-elf/4.8.3/../../../../../H-x86_64-mingw32/nios2-elf/lib\libc.a(lib_a-wcrtomb.o)
 .debug_aranges
                0x0000000000000790       0x20 c:/altera/14.1/nios2eds/bin/gnu/h-x86_64-mingw32/bin/../lib/gcc/nios2-elf/4.8.3/../../../../../H-x86_64-mingw32/nios2-elf/lib\libc.a(lib_a-wctomb_r.o)
 .debug_aranges
                0x00000000000007b0       0x20 c:/altera/14.1/nios2eds/bin/gnu/h-x86_64-mingw32/bin/../lib/gcc/nios2-elf/4.8.3\libgcc.a(_udivdi3.o)
 .debug_aranges
                0x00000000000007d0       0x20 c:/altera/14.1/nios2eds/bin/gnu/h-x86_64-mingw32/bin/../lib/gcc/nios2-elf/4.8.3\libgcc.a(_umoddi3.o)
 .debug_aranges
                0x00000000000007f0       0x20 c:/altera/14.1/nios2eds/bin/gnu/h-x86_64-mingw32/bin/../lib/gcc/nios2-elf/4.8.3\libgcc.a(adddf3.o)
 .debug_aranges
                0x0000000000000810       0x20 c:/altera/14.1/nios2eds/bin/gnu/h-x86_64-mingw32/bin/../lib/gcc/nios2-elf/4.8.3\libgcc.a(divdf3.o)
 .debug_aranges
                0x0000000000000830       0x20 c:/altera/14.1/nios2eds/bin/gnu/h-x86_64-mingw32/bin/../lib/gcc/nios2-elf/4.8.3\libgcc.a(eqdf2.o)
 .debug_aranges
                0x0000000000000850       0x20 c:/altera/14.1/nios2eds/bin/gnu/h-x86_64-mingw32/bin/../lib/gcc/nios2-elf/4.8.3\libgcc.a(gedf2.o)
 .debug_aranges
                0x0000000000000870       0x20 c:/altera/14.1/nios2eds/bin/gnu/h-x86_64-mingw32/bin/../lib/gcc/nios2-elf/4.8.3\libgcc.a(ledf2.o)
 .debug_aranges
                0x0000000000000890       0x20 c:/altera/14.1/nios2eds/bin/gnu/h-x86_64-mingw32/bin/../lib/gcc/nios2-elf/4.8.3\libgcc.a(muldf3.o)
 .debug_aranges
                0x00000000000008b0       0x20 c:/altera/14.1/nios2eds/bin/gnu/h-x86_64-mingw32/bin/../lib/gcc/nios2-elf/4.8.3\libgcc.a(subdf3.o)
 .debug_aranges
                0x00000000000008d0       0x20 c:/altera/14.1/nios2eds/bin/gnu/h-x86_64-mingw32/bin/../lib/gcc/nios2-elf/4.8.3\libgcc.a(fixdfsi.o)
 .debug_aranges
                0x00000000000008f0       0x20 c:/altera/14.1/nios2eds/bin/gnu/h-x86_64-mingw32/bin/../lib/gcc/nios2-elf/4.8.3\libgcc.a(floatsidf.o)
 .debug_aranges
                0x0000000000000910       0x20 c:/altera/14.1/nios2eds/bin/gnu/h-x86_64-mingw32/bin/../lib/gcc/nios2-elf/4.8.3\libgcc.a(floatunsidf.o)
 .debug_aranges
                0x0000000000000930       0x18 c:/altera/14.1/nios2eds/bin/gnu/h-x86_64-mingw32/bin/../lib/gcc/nios2-elf/4.8.3\libgcc.a(_clz.o)
 .debug_aranges
                0x0000000000000948       0x20 c:/altera/14.1/nios2eds/bin/gnu/h-x86_64-mingw32/bin/../lib/gcc/nios2-elf/4.8.3\libgcc.a(_clzsi2.o)
 .debug_aranges
                0x0000000000000968       0x20 ../lab5_bsp/\libucosii_bsp.a(alt_close.o)
 .debug_aranges
                0x0000000000000988       0x20 ../lab5_bsp/\libucosii_bsp.a(alt_dcache_flush_all.o)
 .debug_aranges
                0x00000000000009a8       0x20 ../lab5_bsp/\libucosii_bsp.a(alt_dev.o)
 .debug_aranges
                0x00000000000009c8       0x18 ../lab5_bsp/\libucosii_bsp.a(alt_errno.o)
 .debug_aranges
                0x00000000000009e0       0x20 ../lab5_bsp/\libucosii_bsp.a(alt_fstat.o)
 .debug_aranges
                0x0000000000000a00       0x20 ../lab5_bsp/\libucosii_bsp.a(alt_iic.o)
 .debug_aranges
                0x0000000000000a20       0x20 ../lab5_bsp/\libucosii_bsp.a(alt_iic_isr_register.o)
 .debug_aranges
                0x0000000000000a40       0x30 ../lab5_bsp/\libucosii_bsp.a(alt_irq_entry.o)
 .debug_aranges
                0x0000000000000a70       0x20 ../lab5_bsp/\libucosii_bsp.a(alt_irq_handler.o)
 .debug_aranges
                0x0000000000000a90       0x18 ../lab5_bsp/\libucosii_bsp.a(alt_irq_vars.o)
 .debug_aranges
                0x0000000000000aa8       0x20 ../lab5_bsp/\libucosii_bsp.a(alt_isatty.o)
 .debug_aranges
                0x0000000000000ac8       0x20 ../lab5_bsp/\libucosii_bsp.a(alt_load.o)
 .debug_aranges
                0x0000000000000ae8       0x20 ../lab5_bsp/\libucosii_bsp.a(alt_lseek.o)
 .debug_aranges
                0x0000000000000b08       0x20 ../lab5_bsp/\libucosii_bsp.a(alt_main.o)
 .debug_aranges
                0x0000000000000b28       0x20 ../lab5_bsp/\libucosii_bsp.a(alt_read.o)
 .debug_aranges
                0x0000000000000b48       0x20 ../lab5_bsp/\libucosii_bsp.a(alt_release_fd.o)
 .debug_aranges
                0x0000000000000b68       0x20 ../lab5_bsp/\libucosii_bsp.a(alt_sbrk.o)
 .debug_aranges
                0x0000000000000b88       0x20 ../lab5_bsp/\libucosii_bsp.a(alt_tick.o)
 .debug_aranges
                0x0000000000000ba8       0x20 ../lab5_bsp/\libucosii_bsp.a(alt_write.o)
 .debug_aranges
                0x0000000000000bc8       0x20 ../lab5_bsp/\libucosii_bsp.a(alt_env_lock.o)
 .debug_aranges
                0x0000000000000be8       0x20 ../lab5_bsp/\libucosii_bsp.a(alt_malloc_lock.o)
 .debug_aranges
                0x0000000000000c08       0x20 ../lab5_bsp/\libucosii_bsp.a(os_core.o)
 .debug_aranges
                0x0000000000000c28       0x20 ../lab5_bsp/\libucosii_bsp.a(os_dbg.o)
 .debug_aranges
                0x0000000000000c48       0x20 ../lab5_bsp/\libucosii_bsp.a(os_flag.o)
 .debug_aranges
                0x0000000000000c68       0x20 ../lab5_bsp/\libucosii_bsp.a(os_mem.o)
 .debug_aranges
                0x0000000000000c88       0x20 ../lab5_bsp/\libucosii_bsp.a(os_q.o)
 .debug_aranges
                0x0000000000000ca8       0x20 ../lab5_bsp/\libucosii_bsp.a(os_sem.o)
 .debug_aranges
                0x0000000000000cc8       0x20 ../lab5_bsp/\libucosii_bsp.a(os_task.o)
 .debug_aranges
                0x0000000000000ce8       0x20 ../lab5_bsp/\libucosii_bsp.a(os_time.o)
 .debug_aranges
                0x0000000000000d08       0x20 ../lab5_bsp/\libucosii_bsp.a(alt_sys_init.o)
 .debug_aranges
                0x0000000000000d28       0x20 ../lab5_bsp/\libucosii_bsp.a(altera_avalon_jtag_uart_fd.o)
 .debug_aranges
                0x0000000000000d48       0x20 ../lab5_bsp/\libucosii_bsp.a(altera_avalon_jtag_uart_init.o)
 .debug_aranges
                0x0000000000000d68       0x20 ../lab5_bsp/\libucosii_bsp.a(altera_avalon_jtag_uart_ioctl.o)
 .debug_aranges
                0x0000000000000d88       0x20 ../lab5_bsp/\libucosii_bsp.a(altera_avalon_jtag_uart_read.o)
 .debug_aranges
                0x0000000000000da8       0x20 ../lab5_bsp/\libucosii_bsp.a(altera_avalon_jtag_uart_write.o)
 .debug_aranges
                0x0000000000000dc8       0x20 ../lab5_bsp/\libucosii_bsp.a(altera_avalon_timer_sc.o)
 .debug_aranges
                0x0000000000000de8       0x20 ../lab5_bsp/\libucosii_bsp.a(alt_alarm_start.o)
 .debug_aranges
                0x0000000000000e08       0x20 ../lab5_bsp/\libucosii_bsp.a(alt_dev_llist_insert.o)
 .debug_aranges
                0x0000000000000e28       0x20 ../lab5_bsp/\libucosii_bsp.a(alt_do_ctors.o)
 .debug_aranges
                0x0000000000000e48       0x20 ../lab5_bsp/\libucosii_bsp.a(alt_do_dtors.o)
 .debug_aranges
                0x0000000000000e68       0x38 ../lab5_bsp/\libucosii_bsp.a(alt_exception_entry.o)
 .debug_aranges
                0x0000000000000ea0       0x20 ../lab5_bsp/\libucosii_bsp.a(alt_icache_flush_all.o)
 .debug_aranges
                0x0000000000000ec0       0x20 ../lab5_bsp/\libucosii_bsp.a(alt_io_redirect.o)
 .debug_aranges
                0x0000000000000ee0       0x20 ../lab5_bsp/\libucosii_bsp.a(alt_open.o)
 .debug_aranges
                0x0000000000000f00       0x20 ../lab5_bsp/\libucosii_bsp.a(altera_nios2_qsys_irq.o)
 .debug_aranges
                0x0000000000000f20       0x20 ../lab5_bsp/\libucosii_bsp.a(os_cpu_a.o)
 .debug_aranges
                0x0000000000000f40       0x20 ../lab5_bsp/\libucosii_bsp.a(os_cpu_c.o)
 .debug_aranges
                0x0000000000000f60       0x20 ../lab5_bsp/\libucosii_bsp.a(alt_find_dev.o)
 .debug_aranges
                0x0000000000000f80       0x20 ../lab5_bsp/\libucosii_bsp.a(alt_find_file.o)
 .debug_aranges
                0x0000000000000fa0       0x20 ../lab5_bsp/\libucosii_bsp.a(alt_get_fd.o)
 .debug_aranges
                0x0000000000000fc0       0x20 ../lab5_bsp/\libucosii_bsp.a(alt_icache_flush.o)
 .debug_aranges
                0x0000000000000fe0       0x20 c:/altera/14.1/nios2eds/bin/gnu/h-x86_64-mingw32/bin/../lib/gcc/nios2-elf/4.8.3/../../../../../H-x86_64-mingw32/nios2-elf/lib\libc.a(lib_a-atexit.o)
 .debug_aranges
                0x0000000000001000       0x20 c:/altera/14.1/nios2eds/bin/gnu/h-x86_64-mingw32/bin/../lib/gcc/nios2-elf/4.8.3/../../../../../H-x86_64-mingw32/nios2-elf/lib\libc.a(lib_a-exit.o)
 .debug_aranges
                0x0000000000001020       0x20 c:/altera/14.1/nios2eds/bin/gnu/h-x86_64-mingw32/bin/../lib/gcc/nios2-elf/4.8.3/../../../../../H-x86_64-mingw32/nios2-elf/lib\libc.a(lib_a-memcmp.o)
 .debug_aranges
                0x0000000000001040       0x20 c:/altera/14.1/nios2eds/bin/gnu/h-x86_64-mingw32/bin/../lib/gcc/nios2-elf/4.8.3/../../../../../H-x86_64-mingw32/nios2-elf/lib\libc.a(lib_a-__atexit.o)
 .debug_aranges
                0x0000000000001060       0x20 c:/altera/14.1/nios2eds/bin/gnu/h-x86_64-mingw32/bin/../lib/gcc/nios2-elf/4.8.3/../../../../../H-x86_64-mingw32/nios2-elf/lib\libc.a(lib_a-__call_atexit.o)
 .debug_aranges
                0x0000000000001080       0x20 ../lab5_bsp/\libucosii_bsp.a(alt_exit.o)

.debug_pubnames
 *(.debug_pubnames)

.debug_info     0x0000000000000000    0x39541
 *(.debug_info .gnu.linkonce.wi.*)
 .debug_info    0x0000000000000000       0x90 ../lab5_bsp//obj/HAL/src/crt0.o
 .debug_info    0x0000000000000090     0x2263 obj/default/drivers/drivers.o
 .debug_info    0x00000000000022f3      0xa47 obj/default/fonts/tahomabold_20.o
 .debug_info    0x0000000000002d3a      0xac4 obj/default/fonts/tahomabold_32.o
 .debug_info    0x00000000000037fe      0x1d8 obj/default/frame.o
 .debug_info    0x00000000000039d6      0x971 obj/default/graphic_lib/draw_gimps.o
 .debug_info    0x0000000000004347      0x751 obj/default/graphic_lib/gimp_bmp.o
 .debug_info    0x0000000000004a98     0x2bf0 obj/default/graphic_lib/simple_graphics.o
 .debug_info    0x0000000000007688      0xc27 obj/default/graphic_lib/simple_text.o
 .debug_info    0x00000000000082af     0x1ac7 obj/default/hello_ucosii.o
 .debug_info    0x0000000000009d76       0x94 obj/default/imagenes/back_down.o
 .debug_info    0x0000000000009e0a       0x94 obj/default/imagenes/back_up.o
 .debug_info    0x0000000000009e9e       0x94 obj/default/imagenes/ford_down.o
 .debug_info    0x0000000000009f32       0x94 obj/default/imagenes/ford_up.o
 .debug_info    0x0000000000009fc6       0x94 obj/default/imagenes/pause_down.o
 .debug_info    0x000000000000a05a       0x94 obj/default/imagenes/pause_up.o
 .debug_info    0x000000000000a0ee       0x94 obj/default/imagenes/play_down.o
 .debug_info    0x000000000000a182       0x94 obj/default/imagenes/play_up.o
 .debug_info    0x000000000000a216       0x94 obj/default/imagenes/stop_down.o
 .debug_info    0x000000000000a2aa       0x94 obj/default/imagenes/stop_up.o
 .debug_info    0x000000000000a33e       0x72 obj/default/song/song.o
 .debug_info    0x000000000000a3b0      0x134 obj/default/student_code/student_code.o
 .debug_info    0x000000000000a4e4      0x6c7 obj/default/vip_fr.o
 .debug_info    0x000000000000abab      0x270 c:/altera/14.1/nios2eds/bin/gnu/h-x86_64-mingw32/bin/../lib/gcc/nios2-elf/4.8.3\libgcc.a(lib2-divmod.o)
 .debug_info    0x000000000000ae1b      0x18b c:/altera/14.1/nios2eds/bin/gnu/h-x86_64-mingw32/bin/../lib/gcc/nios2-elf/4.8.3\libgcc.a(fixsfsi.o)
 .debug_info    0x000000000000afa6      0x910 c:/altera/14.1/nios2eds/bin/gnu/h-x86_64-mingw32/bin/../lib/gcc/nios2-elf/4.8.3/../../../../../H-x86_64-mingw32/nios2-elf/lib\libc.a(lib_a-malloc.o)
 .debug_info    0x000000000000b8b6      0xd7c c:/altera/14.1/nios2eds/bin/gnu/h-x86_64-mingw32/bin/../lib/gcc/nios2-elf/4.8.3/../../../../../H-x86_64-mingw32/nios2-elf/lib\libc.a(lib_a-mallocr.o)
 .debug_info    0x000000000000c632      0x133 c:/altera/14.1/nios2eds/bin/gnu/h-x86_64-mingw32/bin/../lib/gcc/nios2-elf/4.8.3/../../../../../H-x86_64-mingw32/nios2-elf/lib\libc.a(lib_a-memcpy.o)
 .debug_info    0x000000000000c765      0x11a c:/altera/14.1/nios2eds/bin/gnu/h-x86_64-mingw32/bin/../lib/gcc/nios2-elf/4.8.3/../../../../../H-x86_64-mingw32/nios2-elf/lib\libc.a(lib_a-memset.o)
 .debug_info    0x000000000000c87f      0x9b3 c:/altera/14.1/nios2eds/bin/gnu/h-x86_64-mingw32/bin/../lib/gcc/nios2-elf/4.8.3/../../../../../H-x86_64-mingw32/nios2-elf/lib\libc.a(lib_a-printf.o)
 .debug_info    0x000000000000d232      0x8ef c:/altera/14.1/nios2eds/bin/gnu/h-x86_64-mingw32/bin/../lib/gcc/nios2-elf/4.8.3/../../../../../H-x86_64-mingw32/nios2-elf/lib\libc.a(lib_a-sbrkr.o)
 .debug_info    0x000000000000db21      0x110 c:/altera/14.1/nios2eds/bin/gnu/h-x86_64-mingw32/bin/../lib/gcc/nios2-elf/4.8.3/../../../../../H-x86_64-mingw32/nios2-elf/lib\libc.a(lib_a-strcpy.o)
 .debug_info    0x000000000000dc31       0xdb c:/altera/14.1/nios2eds/bin/gnu/h-x86_64-mingw32/bin/../lib/gcc/nios2-elf/4.8.3/../../../../../H-x86_64-mingw32/nios2-elf/lib\libc.a(lib_a-strlen.o)
 .debug_info    0x000000000000dd0c     0x1814 c:/altera/14.1/nios2eds/bin/gnu/h-x86_64-mingw32/bin/../lib/gcc/nios2-elf/4.8.3/../../../../../H-x86_64-mingw32/nios2-elf/lib\libc.a(lib_a-vfprintf.o)
 .debug_info    0x000000000000f520      0x91d c:/altera/14.1/nios2eds/bin/gnu/h-x86_64-mingw32/bin/../lib/gcc/nios2-elf/4.8.3/../../../../../H-x86_64-mingw32/nios2-elf/lib\libc.a(lib_a-wsetup.o)
 .debug_info    0x000000000000fe3d     0x132c c:/altera/14.1/nios2eds/bin/gnu/h-x86_64-mingw32/bin/../lib/gcc/nios2-elf/4.8.3/../../../../../H-x86_64-mingw32/nios2-elf/lib\libc.a(lib_a-dtoa.o)
 .debug_info    0x0000000000011169      0xa3a c:/altera/14.1/nios2eds/bin/gnu/h-x86_64-mingw32/bin/../lib/gcc/nios2-elf/4.8.3/../../../../../H-x86_64-mingw32/nios2-elf/lib\libc.a(lib_a-fflush.o)
 .debug_info    0x0000000000011ba3      0xd08 c:/altera/14.1/nios2eds/bin/gnu/h-x86_64-mingw32/bin/../lib/gcc/nios2-elf/4.8.3/../../../../../H-x86_64-mingw32/nios2-elf/lib\libc.a(lib_a-findfp.o)
 .debug_info    0x00000000000128ab      0xc17 c:/altera/14.1/nios2eds/bin/gnu/h-x86_64-mingw32/bin/../lib/gcc/nios2-elf/4.8.3/../../../../../H-x86_64-mingw32/nios2-elf/lib\libc.a(lib_a-freer.o)
 .debug_info    0x00000000000134c2      0xab7 c:/altera/14.1/nios2eds/bin/gnu/h-x86_64-mingw32/bin/../lib/gcc/nios2-elf/4.8.3/../../../../../H-x86_64-mingw32/nios2-elf/lib\libc.a(lib_a-fwalk.o)
 .debug_info    0x0000000000013f79      0x88f c:/altera/14.1/nios2eds/bin/gnu/h-x86_64-mingw32/bin/../lib/gcc/nios2-elf/4.8.3/../../../../../H-x86_64-mingw32/nios2-elf/lib\libc.a(lib_a-impure.o)
 .debug_info    0x0000000000014808       0x83 c:/altera/14.1/nios2eds/bin/gnu/h-x86_64-mingw32/bin/../lib/gcc/nios2-elf/4.8.3/../../../../../H-x86_64-mingw32/nios2-elf/lib\libc.a(lib_a-int_errno.o)
 .debug_info    0x000000000001488b      0xbde c:/altera/14.1/nios2eds/bin/gnu/h-x86_64-mingw32/bin/../lib/gcc/nios2-elf/4.8.3/../../../../../H-x86_64-mingw32/nios2-elf/lib\libc.a(lib_a-locale.o)
 .debug_info    0x0000000000015469      0xaff c:/altera/14.1/nios2eds/bin/gnu/h-x86_64-mingw32/bin/../lib/gcc/nios2-elf/4.8.3/../../../../../H-x86_64-mingw32/nios2-elf/lib\libc.a(lib_a-makebuf.o)
 .debug_info    0x0000000000015f68      0x12b c:/altera/14.1/nios2eds/bin/gnu/h-x86_64-mingw32/bin/../lib/gcc/nios2-elf/4.8.3/../../../../../H-x86_64-mingw32/nios2-elf/lib\libc.a(lib_a-memchr.o)
 .debug_info    0x0000000000016093     0x1650 c:/altera/14.1/nios2eds/bin/gnu/h-x86_64-mingw32/bin/../lib/gcc/nios2-elf/4.8.3/../../../../../H-x86_64-mingw32/nios2-elf/lib\libc.a(lib_a-mprec.o)
 .debug_info    0x00000000000176e3       0xdc c:/altera/14.1/nios2eds/bin/gnu/h-x86_64-mingw32/bin/../lib/gcc/nios2-elf/4.8.3/../../../../../H-x86_64-mingw32/nios2-elf/lib\libc.a(lib_a-s_fpclassify.o)
 .debug_info    0x00000000000177bf      0xb83 c:/altera/14.1/nios2eds/bin/gnu/h-x86_64-mingw32/bin/../lib/gcc/nios2-elf/4.8.3/../../../../../H-x86_64-mingw32/nios2-elf/lib\libc.a(lib_a-stdio.o)
 .debug_info    0x0000000000018342       0xdd c:/altera/14.1/nios2eds/bin/gnu/h-x86_64-mingw32/bin/../lib/gcc/nios2-elf/4.8.3/../../../../../H-x86_64-mingw32/nios2-elf/lib\libc.a(lib_a-strcmp.o)
 .debug_info    0x000000000001841f     0x1581 c:/altera/14.1/nios2eds/bin/gnu/h-x86_64-mingw32/bin/../lib/gcc/nios2-elf/4.8.3/../../../../../H-x86_64-mingw32/nios2-elf/lib\libc.a(lib_a-vfiprintf.o)
 .debug_info    0x00000000000199a0      0x921 c:/altera/14.1/nios2eds/bin/gnu/h-x86_64-mingw32/bin/../lib/gcc/nios2-elf/4.8.3/../../../../../H-x86_64-mingw32/nios2-elf/lib\libc.a(lib_a-writer.o)
 .debug_info    0x000000000001a2c1      0x8ce c:/altera/14.1/nios2eds/bin/gnu/h-x86_64-mingw32/bin/../lib/gcc/nios2-elf/4.8.3/../../../../../H-x86_64-mingw32/nios2-elf/lib\libc.a(closer.o)
 .debug_info    0x000000000001ab8f      0x9e1 c:/altera/14.1/nios2eds/bin/gnu/h-x86_64-mingw32/bin/../lib/gcc/nios2-elf/4.8.3/../../../../../H-x86_64-mingw32/nios2-elf/lib\libc.a(lib_a-callocr.o)
 .debug_info    0x000000000001b570      0x9d5 c:/altera/14.1/nios2eds/bin/gnu/h-x86_64-mingw32/bin/../lib/gcc/nios2-elf/4.8.3/../../../../../H-x86_64-mingw32/nios2-elf/lib\libc.a(lib_a-fclose.o)
 .debug_info    0x000000000001bf45      0xac6 c:/altera/14.1/nios2eds/bin/gnu/h-x86_64-mingw32/bin/../lib/gcc/nios2-elf/4.8.3/../../../../../H-x86_64-mingw32/nios2-elf/lib\libc.a(lib_a-fputwc.o)
 .debug_info    0x000000000001ca0b      0xa5c c:/altera/14.1/nios2eds/bin/gnu/h-x86_64-mingw32/bin/../lib/gcc/nios2-elf/4.8.3/../../../../../H-x86_64-mingw32/nios2-elf/lib\libc.a(lib_a-fstatr.o)
 .debug_info    0x000000000001d467      0xc31 c:/altera/14.1/nios2eds/bin/gnu/h-x86_64-mingw32/bin/../lib/gcc/nios2-elf/4.8.3/../../../../../H-x86_64-mingw32/nios2-elf/lib\libc.a(lib_a-fvwrite.o)
 .debug_info    0x000000000001e098      0x8ce c:/altera/14.1/nios2eds/bin/gnu/h-x86_64-mingw32/bin/../lib/gcc/nios2-elf/4.8.3/../../../../../H-x86_64-mingw32/nios2-elf/lib\libc.a(lib_a-isattyr.o)
 .debug_info    0x000000000001e966      0x91a c:/altera/14.1/nios2eds/bin/gnu/h-x86_64-mingw32/bin/../lib/gcc/nios2-elf/4.8.3/../../../../../H-x86_64-mingw32/nios2-elf/lib\libc.a(lib_a-lseekr.o)
 .debug_info    0x000000000001f280      0x133 c:/altera/14.1/nios2eds/bin/gnu/h-x86_64-mingw32/bin/../lib/gcc/nios2-elf/4.8.3/../../../../../H-x86_64-mingw32/nios2-elf/lib\libc.a(lib_a-memmove.o)
 .debug_info    0x000000000001f3b3      0x91a c:/altera/14.1/nios2eds/bin/gnu/h-x86_64-mingw32/bin/../lib/gcc/nios2-elf/4.8.3/../../../../../H-x86_64-mingw32/nios2-elf/lib\libc.a(lib_a-readr.o)
 .debug_info    0x000000000001fccd      0xc9c c:/altera/14.1/nios2eds/bin/gnu/h-x86_64-mingw32/bin/../lib/gcc/nios2-elf/4.8.3/../../../../../H-x86_64-mingw32/nios2-elf/lib\libc.a(lib_a-reallocr.o)
 .debug_info    0x0000000000020969      0x9cc c:/altera/14.1/nios2eds/bin/gnu/h-x86_64-mingw32/bin/../lib/gcc/nios2-elf/4.8.3/../../../../../H-x86_64-mingw32/nios2-elf/lib\libc.a(lib_a-wbuf.o)
 .debug_info    0x0000000000021335      0xa52 c:/altera/14.1/nios2eds/bin/gnu/h-x86_64-mingw32/bin/../lib/gcc/nios2-elf/4.8.3/../../../../../H-x86_64-mingw32/nios2-elf/lib\libc.a(lib_a-wcrtomb.o)
 .debug_info    0x0000000000021d87      0x99a c:/altera/14.1/nios2eds/bin/gnu/h-x86_64-mingw32/bin/../lib/gcc/nios2-elf/4.8.3/../../../../../H-x86_64-mingw32/nios2-elf/lib\libc.a(lib_a-wctomb_r.o)
 .debug_info    0x0000000000022721      0x70c c:/altera/14.1/nios2eds/bin/gnu/h-x86_64-mingw32/bin/../lib/gcc/nios2-elf/4.8.3\libgcc.a(_udivdi3.o)
 .debug_info    0x0000000000022e2d      0x765 c:/altera/14.1/nios2eds/bin/gnu/h-x86_64-mingw32/bin/../lib/gcc/nios2-elf/4.8.3\libgcc.a(_umoddi3.o)
 .debug_info    0x0000000000023592      0x485 c:/altera/14.1/nios2eds/bin/gnu/h-x86_64-mingw32/bin/../lib/gcc/nios2-elf/4.8.3\libgcc.a(adddf3.o)
 .debug_info    0x0000000000023a17      0x5c6 c:/altera/14.1/nios2eds/bin/gnu/h-x86_64-mingw32/bin/../lib/gcc/nios2-elf/4.8.3\libgcc.a(divdf3.o)
 .debug_info    0x0000000000023fdd      0x1e2 c:/altera/14.1/nios2eds/bin/gnu/h-x86_64-mingw32/bin/../lib/gcc/nios2-elf/4.8.3\libgcc.a(eqdf2.o)
 .debug_info    0x00000000000241bf      0x200 c:/altera/14.1/nios2eds/bin/gnu/h-x86_64-mingw32/bin/../lib/gcc/nios2-elf/4.8.3\libgcc.a(gedf2.o)
 .debug_info    0x00000000000243bf      0x204 c:/altera/14.1/nios2eds/bin/gnu/h-x86_64-mingw32/bin/../lib/gcc/nios2-elf/4.8.3\libgcc.a(ledf2.o)
 .debug_info    0x00000000000245c3      0x5ec c:/altera/14.1/nios2eds/bin/gnu/h-x86_64-mingw32/bin/../lib/gcc/nios2-elf/4.8.3\libgcc.a(muldf3.o)
 .debug_info    0x0000000000024baf      0x468 c:/altera/14.1/nios2eds/bin/gnu/h-x86_64-mingw32/bin/../lib/gcc/nios2-elf/4.8.3\libgcc.a(subdf3.o)
 .debug_info    0x0000000000025017      0x1a9 c:/altera/14.1/nios2eds/bin/gnu/h-x86_64-mingw32/bin/../lib/gcc/nios2-elf/4.8.3\libgcc.a(fixdfsi.o)
 .debug_info    0x00000000000251c0      0x1c2 c:/altera/14.1/nios2eds/bin/gnu/h-x86_64-mingw32/bin/../lib/gcc/nios2-elf/4.8.3\libgcc.a(floatsidf.o)
 .debug_info    0x0000000000025382      0x1b7 c:/altera/14.1/nios2eds/bin/gnu/h-x86_64-mingw32/bin/../lib/gcc/nios2-elf/4.8.3\libgcc.a(floatunsidf.o)
 .debug_info    0x0000000000025539       0xab c:/altera/14.1/nios2eds/bin/gnu/h-x86_64-mingw32/bin/../lib/gcc/nios2-elf/4.8.3\libgcc.a(_clz.o)
 .debug_info    0x00000000000255e4      0x11d c:/altera/14.1/nios2eds/bin/gnu/h-x86_64-mingw32/bin/../lib/gcc/nios2-elf/4.8.3\libgcc.a(_clzsi2.o)
 .debug_info    0x0000000000025701      0x3a9 ../lab5_bsp/\libucosii_bsp.a(alt_close.o)
 .debug_info    0x0000000000025aaa       0x9f ../lab5_bsp/\libucosii_bsp.a(alt_dcache_flush_all.o)
 .debug_info    0x0000000000025b49      0x57b ../lab5_bsp/\libucosii_bsp.a(alt_dev.o)
 .debug_info    0x00000000000260c4       0x9f ../lab5_bsp/\libucosii_bsp.a(alt_errno.o)
 .debug_info    0x0000000000026163      0x4d4 ../lab5_bsp/\libucosii_bsp.a(alt_fstat.o)
 .debug_info    0x0000000000026637      0x39e ../lab5_bsp/\libucosii_bsp.a(alt_iic.o)
 .debug_info    0x00000000000269d5      0x249 ../lab5_bsp/\libucosii_bsp.a(alt_iic_isr_register.o)
 .debug_info    0x0000000000026c1e       0x99 ../lab5_bsp/\libucosii_bsp.a(alt_irq_entry.o)
 .debug_info    0x0000000000026cb7      0x1d4 ../lab5_bsp/\libucosii_bsp.a(alt_irq_handler.o)
 .debug_info    0x0000000000026e8b       0x88 ../lab5_bsp/\libucosii_bsp.a(alt_irq_vars.o)
 .debug_info    0x0000000000026f13      0x4eb ../lab5_bsp/\libucosii_bsp.a(alt_isatty.o)
 .debug_info    0x00000000000273fe      0x1d2 ../lab5_bsp/\libucosii_bsp.a(alt_load.o)
 .debug_info    0x00000000000275d0      0x3a7 ../lab5_bsp/\libucosii_bsp.a(alt_lseek.o)
 .debug_info    0x0000000000027977      0x3f2 ../lab5_bsp/\libucosii_bsp.a(alt_main.o)
 .debug_info    0x0000000000027d69      0x523 ../lab5_bsp/\libucosii_bsp.a(alt_read.o)
 .debug_info    0x000000000002828c      0x2f3 ../lab5_bsp/\libucosii_bsp.a(alt_release_fd.o)
 .debug_info    0x000000000002857f      0x1a3 ../lab5_bsp/\libucosii_bsp.a(alt_sbrk.o)
 .debug_info    0x0000000000028722      0x2c3 ../lab5_bsp/\libucosii_bsp.a(alt_tick.o)
 .debug_info    0x00000000000289e5      0x52a ../lab5_bsp/\libucosii_bsp.a(alt_write.o)
 .debug_info    0x0000000000028f0f      0xd14 ../lab5_bsp/\libucosii_bsp.a(alt_env_lock.o)
 .debug_info    0x0000000000029c23      0xe67 ../lab5_bsp/\libucosii_bsp.a(alt_malloc_lock.o)
 .debug_info    0x000000000002aa8a     0x1b8f ../lab5_bsp/\libucosii_bsp.a(os_core.o)
 .debug_info    0x000000000002c619      0xa9e ../lab5_bsp/\libucosii_bsp.a(os_dbg.o)
 .debug_info    0x000000000002d0b7     0x11ee ../lab5_bsp/\libucosii_bsp.a(os_flag.o)
 .debug_info    0x000000000002e2a5      0x72c ../lab5_bsp/\libucosii_bsp.a(os_mem.o)
 .debug_info    0x000000000002e9d1      0xfef ../lab5_bsp/\libucosii_bsp.a(os_q.o)
 .debug_info    0x000000000002f9c0      0xb73 ../lab5_bsp/\libucosii_bsp.a(os_sem.o)
 .debug_info    0x0000000000030533     0x144f ../lab5_bsp/\libucosii_bsp.a(os_task.o)
 .debug_info    0x0000000000031982      0x741 ../lab5_bsp/\libucosii_bsp.a(os_time.o)
 .debug_info    0x00000000000320c3      0x70b ../lab5_bsp/\libucosii_bsp.a(alt_sys_init.o)
 .debug_info    0x00000000000327ce      0x756 ../lab5_bsp/\libucosii_bsp.a(altera_avalon_jtag_uart_fd.o)
 .debug_info    0x0000000000032f24      0x82e ../lab5_bsp/\libucosii_bsp.a(altera_avalon_jtag_uart_init.o)
 .debug_info    0x0000000000033752      0x3c7 ../lab5_bsp/\libucosii_bsp.a(altera_avalon_jtag_uart_ioctl.o)
 .debug_info    0x0000000000033b19      0x682 ../lab5_bsp/\libucosii_bsp.a(altera_avalon_jtag_uart_read.o)
 .debug_info    0x000000000003419b      0x661 ../lab5_bsp/\libucosii_bsp.a(altera_avalon_jtag_uart_write.o)
 .debug_info    0x00000000000347fc      0x2a6 ../lab5_bsp/\libucosii_bsp.a(altera_avalon_timer_sc.o)
 .debug_info    0x0000000000034aa2      0x2c5 ../lab5_bsp/\libucosii_bsp.a(alt_alarm_start.o)
 .debug_info    0x0000000000034d67      0x1ac ../lab5_bsp/\libucosii_bsp.a(alt_dev_llist_insert.o)
 .debug_info    0x0000000000034f13       0x84 ../lab5_bsp/\libucosii_bsp.a(alt_do_ctors.o)
 .debug_info    0x0000000000034f97       0x84 ../lab5_bsp/\libucosii_bsp.a(alt_do_dtors.o)
 .debug_info    0x000000000003501b       0x9f ../lab5_bsp/\libucosii_bsp.a(alt_exception_entry.o)
 .debug_info    0x00000000000350ba       0xc5 ../lab5_bsp/\libucosii_bsp.a(alt_icache_flush_all.o)
 .debug_info    0x000000000003517f      0x59c ../lab5_bsp/\libucosii_bsp.a(alt_io_redirect.o)
 .debug_info    0x000000000003571b      0x4c1 ../lab5_bsp/\libucosii_bsp.a(alt_open.o)
 .debug_info    0x0000000000035bdc       0x8b ../lab5_bsp/\libucosii_bsp.a(altera_nios2_qsys_irq.o)
 .debug_info    0x0000000000035c67       0x98 ../lab5_bsp/\libucosii_bsp.a(os_cpu_a.o)
 .debug_info    0x0000000000035cff      0xd0d ../lab5_bsp/\libucosii_bsp.a(os_cpu_c.o)
 .debug_info    0x0000000000036a0c      0x38a ../lab5_bsp/\libucosii_bsp.a(alt_find_dev.o)
 .debug_info    0x0000000000036d96      0x386 ../lab5_bsp/\libucosii_bsp.a(alt_find_file.o)
 .debug_info    0x000000000003711c      0x49c ../lab5_bsp/\libucosii_bsp.a(alt_get_fd.o)
 .debug_info    0x00000000000375b8       0xd7 ../lab5_bsp/\libucosii_bsp.a(alt_icache_flush.o)
 .debug_info    0x000000000003768f      0x10a c:/altera/14.1/nios2eds/bin/gnu/h-x86_64-mingw32/bin/../lib/gcc/nios2-elf/4.8.3/../../../../../H-x86_64-mingw32/nios2-elf/lib\libc.a(lib_a-atexit.o)
 .debug_info    0x0000000000037799      0x8df c:/altera/14.1/nios2eds/bin/gnu/h-x86_64-mingw32/bin/../lib/gcc/nios2-elf/4.8.3/../../../../../H-x86_64-mingw32/nios2-elf/lib\libc.a(lib_a-exit.o)
 .debug_info    0x0000000000038078      0x113 c:/altera/14.1/nios2eds/bin/gnu/h-x86_64-mingw32/bin/../lib/gcc/nios2-elf/4.8.3/../../../../../H-x86_64-mingw32/nios2-elf/lib\libc.a(lib_a-memcmp.o)
 .debug_info    0x000000000003818b      0x93b c:/altera/14.1/nios2eds/bin/gnu/h-x86_64-mingw32/bin/../lib/gcc/nios2-elf/4.8.3/../../../../../H-x86_64-mingw32/nios2-elf/lib\libc.a(lib_a-__atexit.o)
 .debug_info    0x0000000000038ac6      0x949 c:/altera/14.1/nios2eds/bin/gnu/h-x86_64-mingw32/bin/../lib/gcc/nios2-elf/4.8.3/../../../../../H-x86_64-mingw32/nios2-elf/lib\libc.a(lib_a-__call_atexit.o)
 .debug_info    0x000000000003940f      0x132 ../lab5_bsp/\libucosii_bsp.a(alt_exit.o)

.debug_abbrev   0x0000000000000000     0xcbe7
 *(.debug_abbrev)
 .debug_abbrev  0x0000000000000000       0x12 ../lab5_bsp//obj/HAL/src/crt0.o
 .debug_abbrev  0x0000000000000012      0x217 obj/default/drivers/drivers.o
 .debug_abbrev  0x0000000000000229       0x93 obj/default/fonts/tahomabold_20.o
 .debug_abbrev  0x00000000000002bc       0x93 obj/default/fonts/tahomabold_32.o
 .debug_abbrev  0x000000000000034f       0xd5 obj/default/frame.o
 .debug_abbrev  0x0000000000000424      0x1e0 obj/default/graphic_lib/draw_gimps.o
 .debug_abbrev  0x0000000000000604      0x1a2 obj/default/graphic_lib/gimp_bmp.o
 .debug_abbrev  0x00000000000007a6      0x3ad obj/default/graphic_lib/simple_graphics.o
 .debug_abbrev  0x0000000000000b53      0x27b obj/default/graphic_lib/simple_text.o
 .debug_abbrev  0x0000000000000dce      0x234 obj/default/hello_ucosii.o
 .debug_abbrev  0x0000000000001002       0x61 obj/default/imagenes/back_down.o
 .debug_abbrev  0x0000000000001063       0x61 obj/default/imagenes/back_up.o
 .debug_abbrev  0x00000000000010c4       0x61 obj/default/imagenes/ford_down.o
 .debug_abbrev  0x0000000000001125       0x61 obj/default/imagenes/ford_up.o
 .debug_abbrev  0x0000000000001186       0x61 obj/default/imagenes/pause_down.o
 .debug_abbrev  0x00000000000011e7       0x61 obj/default/imagenes/pause_up.o
 .debug_abbrev  0x0000000000001248       0x61 obj/default/imagenes/play_down.o
 .debug_abbrev  0x00000000000012a9       0x61 obj/default/imagenes/play_up.o
 .debug_abbrev  0x000000000000130a       0x61 obj/default/imagenes/stop_down.o
 .debug_abbrev  0x000000000000136b       0x61 obj/default/imagenes/stop_up.o
 .debug_abbrev  0x00000000000013cc       0x45 obj/default/song/song.o
 .debug_abbrev  0x0000000000001411       0xc2 obj/default/student_code/student_code.o
 .debug_abbrev  0x00000000000014d3      0x224 obj/default/vip_fr.o
 .debug_abbrev  0x00000000000016f7       0xf6 c:/altera/14.1/nios2eds/bin/gnu/h-x86_64-mingw32/bin/../lib/gcc/nios2-elf/4.8.3\libgcc.a(lib2-divmod.o)
 .debug_abbrev  0x00000000000017ed      0x11b c:/altera/14.1/nios2eds/bin/gnu/h-x86_64-mingw32/bin/../lib/gcc/nios2-elf/4.8.3\libgcc.a(fixsfsi.o)
 .debug_abbrev  0x0000000000001908      0x1fa c:/altera/14.1/nios2eds/bin/gnu/h-x86_64-mingw32/bin/../lib/gcc/nios2-elf/4.8.3/../../../../../H-x86_64-mingw32/nios2-elf/lib\libc.a(lib_a-malloc.o)
 .debug_abbrev  0x0000000000001b02      0x2a2 c:/altera/14.1/nios2eds/bin/gnu/h-x86_64-mingw32/bin/../lib/gcc/nios2-elf/4.8.3/../../../../../H-x86_64-mingw32/nios2-elf/lib\libc.a(lib_a-mallocr.o)
 .debug_abbrev  0x0000000000001da4       0x9c c:/altera/14.1/nios2eds/bin/gnu/h-x86_64-mingw32/bin/../lib/gcc/nios2-elf/4.8.3/../../../../../H-x86_64-mingw32/nios2-elf/lib\libc.a(lib_a-memcpy.o)
 .debug_abbrev  0x0000000000001e40       0xae c:/altera/14.1/nios2eds/bin/gnu/h-x86_64-mingw32/bin/../lib/gcc/nios2-elf/4.8.3/../../../../../H-x86_64-mingw32/nios2-elf/lib\libc.a(lib_a-memset.o)
 .debug_abbrev  0x0000000000001eee      0x227 c:/altera/14.1/nios2eds/bin/gnu/h-x86_64-mingw32/bin/../lib/gcc/nios2-elf/4.8.3/../../../../../H-x86_64-mingw32/nios2-elf/lib\libc.a(lib_a-printf.o)
 .debug_abbrev  0x0000000000002115      0x1fd c:/altera/14.1/nios2eds/bin/gnu/h-x86_64-mingw32/bin/../lib/gcc/nios2-elf/4.8.3/../../../../../H-x86_64-mingw32/nios2-elf/lib\libc.a(lib_a-sbrkr.o)
 .debug_abbrev  0x0000000000002312       0x83 c:/altera/14.1/nios2eds/bin/gnu/h-x86_64-mingw32/bin/../lib/gcc/nios2-elf/4.8.3/../../../../../H-x86_64-mingw32/nios2-elf/lib\libc.a(lib_a-strcpy.o)
 .debug_abbrev  0x0000000000002395       0x90 c:/altera/14.1/nios2eds/bin/gnu/h-x86_64-mingw32/bin/../lib/gcc/nios2-elf/4.8.3/../../../../../H-x86_64-mingw32/nios2-elf/lib\libc.a(lib_a-strlen.o)
 .debug_abbrev  0x0000000000002425      0x3c2 c:/altera/14.1/nios2eds/bin/gnu/h-x86_64-mingw32/bin/../lib/gcc/nios2-elf/4.8.3/../../../../../H-x86_64-mingw32/nios2-elf/lib\libc.a(lib_a-vfprintf.o)
 .debug_abbrev  0x00000000000027e7      0x1f3 c:/altera/14.1/nios2eds/bin/gnu/h-x86_64-mingw32/bin/../lib/gcc/nios2-elf/4.8.3/../../../../../H-x86_64-mingw32/nios2-elf/lib\libc.a(lib_a-wsetup.o)
 .debug_abbrev  0x00000000000029da      0x2c9 c:/altera/14.1/nios2eds/bin/gnu/h-x86_64-mingw32/bin/../lib/gcc/nios2-elf/4.8.3/../../../../../H-x86_64-mingw32/nios2-elf/lib\libc.a(lib_a-dtoa.o)
 .debug_abbrev  0x0000000000002ca3      0x275 c:/altera/14.1/nios2eds/bin/gnu/h-x86_64-mingw32/bin/../lib/gcc/nios2-elf/4.8.3/../../../../../H-x86_64-mingw32/nios2-elf/lib\libc.a(lib_a-fflush.o)
 .debug_abbrev  0x0000000000002f18      0x34a c:/altera/14.1/nios2eds/bin/gnu/h-x86_64-mingw32/bin/../lib/gcc/nios2-elf/4.8.3/../../../../../H-x86_64-mingw32/nios2-elf/lib\libc.a(lib_a-findfp.o)
 .debug_abbrev  0x0000000000003262      0x27b c:/altera/14.1/nios2eds/bin/gnu/h-x86_64-mingw32/bin/../lib/gcc/nios2-elf/4.8.3/../../../../../H-x86_64-mingw32/nios2-elf/lib\libc.a(lib_a-freer.o)
 .debug_abbrev  0x00000000000034dd      0x242 c:/altera/14.1/nios2eds/bin/gnu/h-x86_64-mingw32/bin/../lib/gcc/nios2-elf/4.8.3/../../../../../H-x86_64-mingw32/nios2-elf/lib\libc.a(lib_a-fwalk.o)
 .debug_abbrev  0x000000000000371f      0x180 c:/altera/14.1/nios2eds/bin/gnu/h-x86_64-mingw32/bin/../lib/gcc/nios2-elf/4.8.3/../../../../../H-x86_64-mingw32/nios2-elf/lib\libc.a(lib_a-impure.o)
 .debug_abbrev  0x000000000000389f       0x37 c:/altera/14.1/nios2eds/bin/gnu/h-x86_64-mingw32/bin/../lib/gcc/nios2-elf/4.8.3/../../../../../H-x86_64-mingw32/nios2-elf/lib\libc.a(lib_a-int_errno.o)
 .debug_abbrev  0x00000000000038d6      0x2a3 c:/altera/14.1/nios2eds/bin/gnu/h-x86_64-mingw32/bin/../lib/gcc/nios2-elf/4.8.3/../../../../../H-x86_64-mingw32/nios2-elf/lib\libc.a(lib_a-locale.o)
 .debug_abbrev  0x0000000000003b79      0x206 c:/altera/14.1/nios2eds/bin/gnu/h-x86_64-mingw32/bin/../lib/gcc/nios2-elf/4.8.3/../../../../../H-x86_64-mingw32/nios2-elf/lib\libc.a(lib_a-makebuf.o)
 .debug_abbrev  0x0000000000003d7f       0xab c:/altera/14.1/nios2eds/bin/gnu/h-x86_64-mingw32/bin/../lib/gcc/nios2-elf/4.8.3/../../../../../H-x86_64-mingw32/nios2-elf/lib\libc.a(lib_a-memchr.o)
 .debug_abbrev  0x0000000000003e2a      0x3c2 c:/altera/14.1/nios2eds/bin/gnu/h-x86_64-mingw32/bin/../lib/gcc/nios2-elf/4.8.3/../../../../../H-x86_64-mingw32/nios2-elf/lib\libc.a(lib_a-mprec.o)
 .debug_abbrev  0x00000000000041ec       0x7e c:/altera/14.1/nios2eds/bin/gnu/h-x86_64-mingw32/bin/../lib/gcc/nios2-elf/4.8.3/../../../../../H-x86_64-mingw32/nios2-elf/lib\libc.a(lib_a-s_fpclassify.o)
 .debug_abbrev  0x000000000000426a      0x246 c:/altera/14.1/nios2eds/bin/gnu/h-x86_64-mingw32/bin/../lib/gcc/nios2-elf/4.8.3/../../../../../H-x86_64-mingw32/nios2-elf/lib\libc.a(lib_a-stdio.o)
 .debug_abbrev  0x00000000000044b0       0x74 c:/altera/14.1/nios2eds/bin/gnu/h-x86_64-mingw32/bin/../lib/gcc/nios2-elf/4.8.3/../../../../../H-x86_64-mingw32/nios2-elf/lib\libc.a(lib_a-strcmp.o)
 .debug_abbrev  0x0000000000004524      0x3f8 c:/altera/14.1/nios2eds/bin/gnu/h-x86_64-mingw32/bin/../lib/gcc/nios2-elf/4.8.3/../../../../../H-x86_64-mingw32/nios2-elf/lib\libc.a(lib_a-vfiprintf.o)
 .debug_abbrev  0x000000000000491c      0x1de c:/altera/14.1/nios2eds/bin/gnu/h-x86_64-mingw32/bin/../lib/gcc/nios2-elf/4.8.3/../../../../../H-x86_64-mingw32/nios2-elf/lib\libc.a(lib_a-writer.o)
 .debug_abbrev  0x0000000000004afa      0x1d9 c:/altera/14.1/nios2eds/bin/gnu/h-x86_64-mingw32/bin/../lib/gcc/nios2-elf/4.8.3/../../../../../H-x86_64-mingw32/nios2-elf/lib\libc.a(closer.o)
 .debug_abbrev  0x0000000000004cd3      0x213 c:/altera/14.1/nios2eds/bin/gnu/h-x86_64-mingw32/bin/../lib/gcc/nios2-elf/4.8.3/../../../../../H-x86_64-mingw32/nios2-elf/lib\libc.a(lib_a-callocr.o)
 .debug_abbrev  0x0000000000004ee6      0x26c c:/altera/14.1/nios2eds/bin/gnu/h-x86_64-mingw32/bin/../lib/gcc/nios2-elf/4.8.3/../../../../../H-x86_64-mingw32/nios2-elf/lib\libc.a(lib_a-fclose.o)
 .debug_abbrev  0x0000000000005152      0x299 c:/altera/14.1/nios2eds/bin/gnu/h-x86_64-mingw32/bin/../lib/gcc/nios2-elf/4.8.3/../../../../../H-x86_64-mingw32/nios2-elf/lib\libc.a(lib_a-fputwc.o)
 .debug_abbrev  0x00000000000053eb      0x1e8 c:/altera/14.1/nios2eds/bin/gnu/h-x86_64-mingw32/bin/../lib/gcc/nios2-elf/4.8.3/../../../../../H-x86_64-mingw32/nios2-elf/lib\libc.a(lib_a-fstatr.o)
 .debug_abbrev  0x00000000000055d3      0x252 c:/altera/14.1/nios2eds/bin/gnu/h-x86_64-mingw32/bin/../lib/gcc/nios2-elf/4.8.3/../../../../../H-x86_64-mingw32/nios2-elf/lib\libc.a(lib_a-fvwrite.o)
 .debug_abbrev  0x0000000000005825      0x1d9 c:/altera/14.1/nios2eds/bin/gnu/h-x86_64-mingw32/bin/../lib/gcc/nios2-elf/4.8.3/../../../../../H-x86_64-mingw32/nios2-elf/lib\libc.a(lib_a-isattyr.o)
 .debug_abbrev  0x00000000000059fe      0x1e8 c:/altera/14.1/nios2eds/bin/gnu/h-x86_64-mingw32/bin/../lib/gcc/nios2-elf/4.8.3/../../../../../H-x86_64-mingw32/nios2-elf/lib\libc.a(lib_a-lseekr.o)
 .debug_abbrev  0x0000000000005be6       0x9c c:/altera/14.1/nios2eds/bin/gnu/h-x86_64-mingw32/bin/../lib/gcc/nios2-elf/4.8.3/../../../../../H-x86_64-mingw32/nios2-elf/lib\libc.a(lib_a-memmove.o)
 .debug_abbrev  0x0000000000005c82      0x1d9 c:/altera/14.1/nios2eds/bin/gnu/h-x86_64-mingw32/bin/../lib/gcc/nios2-elf/4.8.3/../../../../../H-x86_64-mingw32/nios2-elf/lib\libc.a(lib_a-readr.o)
 .debug_abbrev  0x0000000000005e5b      0x260 c:/altera/14.1/nios2eds/bin/gnu/h-x86_64-mingw32/bin/../lib/gcc/nios2-elf/4.8.3/../../../../../H-x86_64-mingw32/nios2-elf/lib\libc.a(lib_a-reallocr.o)
 .debug_abbrev  0x00000000000060bb      0x238 c:/altera/14.1/nios2eds/bin/gnu/h-x86_64-mingw32/bin/../lib/gcc/nios2-elf/4.8.3/../../../../../H-x86_64-mingw32/nios2-elf/lib\libc.a(lib_a-wbuf.o)
 .debug_abbrev  0x00000000000062f3      0x21c c:/altera/14.1/nios2eds/bin/gnu/h-x86_64-mingw32/bin/../lib/gcc/nios2-elf/4.8.3/../../../../../H-x86_64-mingw32/nios2-elf/lib\libc.a(lib_a-wcrtomb.o)
 .debug_abbrev  0x000000000000650f      0x212 c:/altera/14.1/nios2eds/bin/gnu/h-x86_64-mingw32/bin/../lib/gcc/nios2-elf/4.8.3/../../../../../H-x86_64-mingw32/nios2-elf/lib\libc.a(lib_a-wctomb_r.o)
 .debug_abbrev  0x0000000000006721      0x170 c:/altera/14.1/nios2eds/bin/gnu/h-x86_64-mingw32/bin/../lib/gcc/nios2-elf/4.8.3\libgcc.a(_udivdi3.o)
 .debug_abbrev  0x0000000000006891      0x193 c:/altera/14.1/nios2eds/bin/gnu/h-x86_64-mingw32/bin/../lib/gcc/nios2-elf/4.8.3\libgcc.a(_umoddi3.o)
 .debug_abbrev  0x0000000000006a24      0x13a c:/altera/14.1/nios2eds/bin/gnu/h-x86_64-mingw32/bin/../lib/gcc/nios2-elf/4.8.3\libgcc.a(adddf3.o)
 .debug_abbrev  0x0000000000006b5e      0x120 c:/altera/14.1/nios2eds/bin/gnu/h-x86_64-mingw32/bin/../lib/gcc/nios2-elf/4.8.3\libgcc.a(divdf3.o)
 .debug_abbrev  0x0000000000006c7e      0x137 c:/altera/14.1/nios2eds/bin/gnu/h-x86_64-mingw32/bin/../lib/gcc/nios2-elf/4.8.3\libgcc.a(eqdf2.o)
 .debug_abbrev  0x0000000000006db5      0x137 c:/altera/14.1/nios2eds/bin/gnu/h-x86_64-mingw32/bin/../lib/gcc/nios2-elf/4.8.3\libgcc.a(gedf2.o)
 .debug_abbrev  0x0000000000006eec      0x137 c:/altera/14.1/nios2eds/bin/gnu/h-x86_64-mingw32/bin/../lib/gcc/nios2-elf/4.8.3\libgcc.a(ledf2.o)
 .debug_abbrev  0x0000000000007023      0x132 c:/altera/14.1/nios2eds/bin/gnu/h-x86_64-mingw32/bin/../lib/gcc/nios2-elf/4.8.3\libgcc.a(muldf3.o)
 .debug_abbrev  0x0000000000007155      0x133 c:/altera/14.1/nios2eds/bin/gnu/h-x86_64-mingw32/bin/../lib/gcc/nios2-elf/4.8.3\libgcc.a(subdf3.o)
 .debug_abbrev  0x0000000000007288      0x128 c:/altera/14.1/nios2eds/bin/gnu/h-x86_64-mingw32/bin/../lib/gcc/nios2-elf/4.8.3\libgcc.a(fixdfsi.o)
 .debug_abbrev  0x00000000000073b0      0x12d c:/altera/14.1/nios2eds/bin/gnu/h-x86_64-mingw32/bin/../lib/gcc/nios2-elf/4.8.3\libgcc.a(floatsidf.o)
 .debug_abbrev  0x00000000000074dd      0x12d c:/altera/14.1/nios2eds/bin/gnu/h-x86_64-mingw32/bin/../lib/gcc/nios2-elf/4.8.3\libgcc.a(floatunsidf.o)
 .debug_abbrev  0x000000000000760a       0x5d c:/altera/14.1/nios2eds/bin/gnu/h-x86_64-mingw32/bin/../lib/gcc/nios2-elf/4.8.3\libgcc.a(_clz.o)
 .debug_abbrev  0x0000000000007667       0xbe c:/altera/14.1/nios2eds/bin/gnu/h-x86_64-mingw32/bin/../lib/gcc/nios2-elf/4.8.3\libgcc.a(_clzsi2.o)
 .debug_abbrev  0x0000000000007725      0x16e ../lab5_bsp/\libucosii_bsp.a(alt_close.o)
 .debug_abbrev  0x0000000000007893       0x5a ../lab5_bsp/\libucosii_bsp.a(alt_dcache_flush_all.o)
 .debug_abbrev  0x00000000000078ed      0x11c ../lab5_bsp/\libucosii_bsp.a(alt_dev.o)
 .debug_abbrev  0x0000000000007a09       0x5a ../lab5_bsp/\libucosii_bsp.a(alt_errno.o)
 .debug_abbrev  0x0000000000007a63      0x143 ../lab5_bsp/\libucosii_bsp.a(alt_fstat.o)
 .debug_abbrev  0x0000000000007ba6      0x17a ../lab5_bsp/\libucosii_bsp.a(alt_iic.o)
 .debug_abbrev  0x0000000000007d20      0x1a6 ../lab5_bsp/\libucosii_bsp.a(alt_iic_isr_register.o)
 .debug_abbrev  0x0000000000007ec6       0x12 ../lab5_bsp/\libucosii_bsp.a(alt_irq_entry.o)
 .debug_abbrev  0x0000000000007ed8      0x147 ../lab5_bsp/\libucosii_bsp.a(alt_irq_handler.o)
 .debug_abbrev  0x000000000000801f       0x40 ../lab5_bsp/\libucosii_bsp.a(alt_irq_vars.o)
 .debug_abbrev  0x000000000000805f      0x158 ../lab5_bsp/\libucosii_bsp.a(alt_isatty.o)
 .debug_abbrev  0x00000000000081b7       0xd3 ../lab5_bsp/\libucosii_bsp.a(alt_load.o)
 .debug_abbrev  0x000000000000828a      0x143 ../lab5_bsp/\libucosii_bsp.a(alt_lseek.o)
 .debug_abbrev  0x00000000000083cd      0x1fb ../lab5_bsp/\libucosii_bsp.a(alt_main.o)
 .debug_abbrev  0x00000000000085c8      0x152 ../lab5_bsp/\libucosii_bsp.a(alt_read.o)
 .debug_abbrev  0x000000000000871a       0xe5 ../lab5_bsp/\libucosii_bsp.a(alt_release_fd.o)
 .debug_abbrev  0x00000000000087ff      0x11b ../lab5_bsp/\libucosii_bsp.a(alt_sbrk.o)
 .debug_abbrev  0x000000000000891a      0x19e ../lab5_bsp/\libucosii_bsp.a(alt_tick.o)
 .debug_abbrev  0x0000000000008ab8      0x157 ../lab5_bsp/\libucosii_bsp.a(alt_write.o)
 .debug_abbrev  0x0000000000008c0f      0x24d ../lab5_bsp/\libucosii_bsp.a(alt_env_lock.o)
 .debug_abbrev  0x0000000000008e5c      0x2d7 ../lab5_bsp/\libucosii_bsp.a(alt_malloc_lock.o)
 .debug_abbrev  0x0000000000009133      0x3bc ../lab5_bsp/\libucosii_bsp.a(os_core.o)
 .debug_abbrev  0x00000000000094ef       0xf5 ../lab5_bsp/\libucosii_bsp.a(os_dbg.o)
 .debug_abbrev  0x00000000000095e4      0x2e3 ../lab5_bsp/\libucosii_bsp.a(os_flag.o)
 .debug_abbrev  0x00000000000098c7      0x289 ../lab5_bsp/\libucosii_bsp.a(os_mem.o)
 .debug_abbrev  0x0000000000009b50      0x2cd ../lab5_bsp/\libucosii_bsp.a(os_q.o)
 .debug_abbrev  0x0000000000009e1d      0x2dc ../lab5_bsp/\libucosii_bsp.a(os_sem.o)
 .debug_abbrev  0x000000000000a0f9      0x2a2 ../lab5_bsp/\libucosii_bsp.a(os_task.o)
 .debug_abbrev  0x000000000000a39b      0x26d ../lab5_bsp/\libucosii_bsp.a(os_time.o)
 .debug_abbrev  0x000000000000a608      0x23d ../lab5_bsp/\libucosii_bsp.a(alt_sys_init.o)
 .debug_abbrev  0x000000000000a845      0x1b6 ../lab5_bsp/\libucosii_bsp.a(altera_avalon_jtag_uart_fd.o)
 .debug_abbrev  0x000000000000a9fb      0x2bc ../lab5_bsp/\libucosii_bsp.a(altera_avalon_jtag_uart_init.o)
 .debug_abbrev  0x000000000000acb7      0x165 ../lab5_bsp/\libucosii_bsp.a(altera_avalon_jtag_uart_ioctl.o)
 .debug_abbrev  0x000000000000ae1c      0x270 ../lab5_bsp/\libucosii_bsp.a(altera_avalon_jtag_uart_read.o)
 .debug_abbrev  0x000000000000b08c      0x293 ../lab5_bsp/\libucosii_bsp.a(altera_avalon_jtag_uart_write.o)
 .debug_abbrev  0x000000000000b31f      0x19c ../lab5_bsp/\libucosii_bsp.a(altera_avalon_timer_sc.o)
 .debug_abbrev  0x000000000000b4bb      0x187 ../lab5_bsp/\libucosii_bsp.a(alt_alarm_start.o)
 .debug_abbrev  0x000000000000b642      0x11c ../lab5_bsp/\libucosii_bsp.a(alt_dev_llist_insert.o)
 .debug_abbrev  0x000000000000b75e       0x79 ../lab5_bsp/\libucosii_bsp.a(alt_do_ctors.o)
 .debug_abbrev  0x000000000000b7d7       0x79 ../lab5_bsp/\libucosii_bsp.a(alt_do_dtors.o)
 .debug_abbrev  0x000000000000b850       0x12 ../lab5_bsp/\libucosii_bsp.a(alt_exception_entry.o)
 .debug_abbrev  0x000000000000b862       0x87 ../lab5_bsp/\libucosii_bsp.a(alt_icache_flush_all.o)
 .debug_abbrev  0x000000000000b8e9      0x175 ../lab5_bsp/\libucosii_bsp.a(alt_io_redirect.o)
 .debug_abbrev  0x000000000000ba5e      0x1da ../lab5_bsp/\libucosii_bsp.a(alt_open.o)
 .debug_abbrev  0x000000000000bc38       0x42 ../lab5_bsp/\libucosii_bsp.a(altera_nios2_qsys_irq.o)
 .debug_abbrev  0x000000000000bc7a       0x14 ../lab5_bsp/\libucosii_bsp.a(os_cpu_a.o)
 .debug_abbrev  0x000000000000bc8e      0x23d ../lab5_bsp/\libucosii_bsp.a(os_cpu_c.o)
 .debug_abbrev  0x000000000000becb      0x135 ../lab5_bsp/\libucosii_bsp.a(alt_find_dev.o)
 .debug_abbrev  0x000000000000c000      0x135 ../lab5_bsp/\libucosii_bsp.a(alt_find_file.o)
 .debug_abbrev  0x000000000000c135      0x1ee ../lab5_bsp/\libucosii_bsp.a(alt_get_fd.o)
 .debug_abbrev  0x000000000000c323       0x9b ../lab5_bsp/\libucosii_bsp.a(alt_icache_flush.o)
 .debug_abbrev  0x000000000000c3be       0xb8 c:/altera/14.1/nios2eds/bin/gnu/h-x86_64-mingw32/bin/../lib/gcc/nios2-elf/4.8.3/../../../../../H-x86_64-mingw32/nios2-elf/lib\libc.a(lib_a-atexit.o)
 .debug_abbrev  0x000000000000c476      0x1e6 c:/altera/14.1/nios2eds/bin/gnu/h-x86_64-mingw32/bin/../lib/gcc/nios2-elf/4.8.3/../../../../../H-x86_64-mingw32/nios2-elf/lib\libc.a(lib_a-exit.o)
 .debug_abbrev  0x000000000000c65c       0x7f c:/altera/14.1/nios2eds/bin/gnu/h-x86_64-mingw32/bin/../lib/gcc/nios2-elf/4.8.3/../../../../../H-x86_64-mingw32/nios2-elf/lib\libc.a(lib_a-memcmp.o)
 .debug_abbrev  0x000000000000c6db      0x21e c:/altera/14.1/nios2eds/bin/gnu/h-x86_64-mingw32/bin/../lib/gcc/nios2-elf/4.8.3/../../../../../H-x86_64-mingw32/nios2-elf/lib\libc.a(lib_a-__atexit.o)
 .debug_abbrev  0x000000000000c8f9      0x210 c:/altera/14.1/nios2eds/bin/gnu/h-x86_64-mingw32/bin/../lib/gcc/nios2-elf/4.8.3/../../../../../H-x86_64-mingw32/nios2-elf/lib\libc.a(lib_a-__call_atexit.o)
 .debug_abbrev  0x000000000000cb09       0xde ../lab5_bsp/\libucosii_bsp.a(alt_exit.o)

.debug_line     0x0000000000000000     0xec71
 *(.debug_line)
 .debug_line    0x0000000000000000       0x72 ../lab5_bsp//obj/HAL/src/crt0.o
 .debug_line    0x0000000000000072      0x2f4 obj/default/drivers/drivers.o
 .debug_line    0x0000000000000366       0x36 obj/default/fonts/tahomabold_20.o
 .debug_line    0x000000000000039c       0x36 obj/default/fonts/tahomabold_32.o
 .debug_line    0x00000000000003d2       0xe3 obj/default/frame.o
 .debug_line    0x00000000000004b5      0x277 obj/default/graphic_lib/draw_gimps.o
 .debug_line    0x000000000000072c      0x283 obj/default/graphic_lib/gimp_bmp.o
 .debug_line    0x00000000000009af      0x668 obj/default/graphic_lib/simple_graphics.o
 .debug_line    0x0000000000001017      0x2cb obj/default/graphic_lib/simple_text.o
 .debug_line    0x00000000000012e2      0x377 obj/default/hello_ucosii.o
 .debug_line    0x0000000000001659       0x35 obj/default/imagenes/back_down.o
 .debug_line    0x000000000000168e       0x33 obj/default/imagenes/back_up.o
 .debug_line    0x00000000000016c1       0x35 obj/default/imagenes/ford_down.o
 .debug_line    0x00000000000016f6       0x33 obj/default/imagenes/ford_up.o
 .debug_line    0x0000000000001729       0x36 obj/default/imagenes/pause_down.o
 .debug_line    0x000000000000175f       0x34 obj/default/imagenes/pause_up.o
 .debug_line    0x0000000000001793       0x35 obj/default/imagenes/play_down.o
 .debug_line    0x00000000000017c8       0x33 obj/default/imagenes/play_up.o
 .debug_line    0x00000000000017fb       0x35 obj/default/imagenes/stop_down.o
 .debug_line    0x0000000000001830       0x33 obj/default/imagenes/stop_up.o
 .debug_line    0x0000000000001863       0x2c obj/default/song/song.o
 .debug_line    0x000000000000188f       0x9e obj/default/student_code/student_code.o
 .debug_line    0x000000000000192d      0x207 obj/default/vip_fr.o
 .debug_line    0x0000000000001b34       0xcb c:/altera/14.1/nios2eds/bin/gnu/h-x86_64-mingw32/bin/../lib/gcc/nios2-elf/4.8.3\libgcc.a(lib2-divmod.o)
 .debug_line    0x0000000000001bff       0x8f c:/altera/14.1/nios2eds/bin/gnu/h-x86_64-mingw32/bin/../lib/gcc/nios2-elf/4.8.3\libgcc.a(fixsfsi.o)
 .debug_line    0x0000000000001c8e      0x203 c:/altera/14.1/nios2eds/bin/gnu/h-x86_64-mingw32/bin/../lib/gcc/nios2-elf/4.8.3/../../../../../H-x86_64-mingw32/nios2-elf/lib\libc.a(lib_a-malloc.o)
 .debug_line    0x0000000000001e91      0x419 c:/altera/14.1/nios2eds/bin/gnu/h-x86_64-mingw32/bin/../lib/gcc/nios2-elf/4.8.3/../../../../../H-x86_64-mingw32/nios2-elf/lib\libc.a(lib_a-mallocr.o)
 .debug_line    0x00000000000022aa      0x1a2 c:/altera/14.1/nios2eds/bin/gnu/h-x86_64-mingw32/bin/../lib/gcc/nios2-elf/4.8.3/../../../../../H-x86_64-mingw32/nios2-elf/lib\libc.a(lib_a-memcpy.o)
 .debug_line    0x000000000000244c      0x1a5 c:/altera/14.1/nios2eds/bin/gnu/h-x86_64-mingw32/bin/../lib/gcc/nios2-elf/4.8.3/../../../../../H-x86_64-mingw32/nios2-elf/lib\libc.a(lib_a-memset.o)
 .debug_line    0x00000000000025f1      0x218 c:/altera/14.1/nios2eds/bin/gnu/h-x86_64-mingw32/bin/../lib/gcc/nios2-elf/4.8.3/../../../../../H-x86_64-mingw32/nios2-elf/lib\libc.a(lib_a-printf.o)
 .debug_line    0x0000000000002809      0x202 c:/altera/14.1/nios2eds/bin/gnu/h-x86_64-mingw32/bin/../lib/gcc/nios2-elf/4.8.3/../../../../../H-x86_64-mingw32/nios2-elf/lib\libc.a(lib_a-sbrkr.o)
 .debug_line    0x0000000000002a0b      0x103 c:/altera/14.1/nios2eds/bin/gnu/h-x86_64-mingw32/bin/../lib/gcc/nios2-elf/4.8.3/../../../../../H-x86_64-mingw32/nios2-elf/lib\libc.a(lib_a-strcpy.o)
 .debug_line    0x0000000000002b0e      0x18b c:/altera/14.1/nios2eds/bin/gnu/h-x86_64-mingw32/bin/../lib/gcc/nios2-elf/4.8.3/../../../../../H-x86_64-mingw32/nios2-elf/lib\libc.a(lib_a-strlen.o)
 .debug_line    0x0000000000002c99      0xad0 c:/altera/14.1/nios2eds/bin/gnu/h-x86_64-mingw32/bin/../lib/gcc/nios2-elf/4.8.3/../../../../../H-x86_64-mingw32/nios2-elf/lib\libc.a(lib_a-vfprintf.o)
 .debug_line    0x0000000000003769      0x263 c:/altera/14.1/nios2eds/bin/gnu/h-x86_64-mingw32/bin/../lib/gcc/nios2-elf/4.8.3/../../../../../H-x86_64-mingw32/nios2-elf/lib\libc.a(lib_a-wsetup.o)
 .debug_line    0x00000000000039cc      0x7ce c:/altera/14.1/nios2eds/bin/gnu/h-x86_64-mingw32/bin/../lib/gcc/nios2-elf/4.8.3/../../../../../H-x86_64-mingw32/nios2-elf/lib\libc.a(lib_a-dtoa.o)
 .debug_line    0x000000000000419a      0x2dc c:/altera/14.1/nios2eds/bin/gnu/h-x86_64-mingw32/bin/../lib/gcc/nios2-elf/4.8.3/../../../../../H-x86_64-mingw32/nios2-elf/lib\libc.a(lib_a-fflush.o)
 .debug_line    0x0000000000004476      0x2fd c:/altera/14.1/nios2eds/bin/gnu/h-x86_64-mingw32/bin/../lib/gcc/nios2-elf/4.8.3/../../../../../H-x86_64-mingw32/nios2-elf/lib\libc.a(lib_a-findfp.o)
 .debug_line    0x0000000000004773      0x30e c:/altera/14.1/nios2eds/bin/gnu/h-x86_64-mingw32/bin/../lib/gcc/nios2-elf/4.8.3/../../../../../H-x86_64-mingw32/nios2-elf/lib\libc.a(lib_a-freer.o)
 .debug_line    0x0000000000004a81      0x243 c:/altera/14.1/nios2eds/bin/gnu/h-x86_64-mingw32/bin/../lib/gcc/nios2-elf/4.8.3/../../../../../H-x86_64-mingw32/nios2-elf/lib\libc.a(lib_a-fwalk.o)
 .debug_line    0x0000000000004cc4      0x171 c:/altera/14.1/nios2eds/bin/gnu/h-x86_64-mingw32/bin/../lib/gcc/nios2-elf/4.8.3/../../../../../H-x86_64-mingw32/nios2-elf/lib\libc.a(lib_a-impure.o)
 .debug_line    0x0000000000004e35       0x5d c:/altera/14.1/nios2eds/bin/gnu/h-x86_64-mingw32/bin/../lib/gcc/nios2-elf/4.8.3/../../../../../H-x86_64-mingw32/nios2-elf/lib\libc.a(lib_a-int_errno.o)
 .debug_line    0x0000000000004e92      0x23f c:/altera/14.1/nios2eds/bin/gnu/h-x86_64-mingw32/bin/../lib/gcc/nios2-elf/4.8.3/../../../../../H-x86_64-mingw32/nios2-elf/lib\libc.a(lib_a-locale.o)
 .debug_line    0x00000000000050d1      0x295 c:/altera/14.1/nios2eds/bin/gnu/h-x86_64-mingw32/bin/../lib/gcc/nios2-elf/4.8.3/../../../../../H-x86_64-mingw32/nios2-elf/lib\libc.a(lib_a-makebuf.o)
 .debug_line    0x0000000000005366      0x19f c:/altera/14.1/nios2eds/bin/gnu/h-x86_64-mingw32/bin/../lib/gcc/nios2-elf/4.8.3/../../../../../H-x86_64-mingw32/nios2-elf/lib\libc.a(lib_a-memchr.o)
 .debug_line    0x0000000000005505      0x6ef c:/altera/14.1/nios2eds/bin/gnu/h-x86_64-mingw32/bin/../lib/gcc/nios2-elf/4.8.3/../../../../../H-x86_64-mingw32/nios2-elf/lib\libc.a(lib_a-mprec.o)
 .debug_line    0x0000000000005bf4      0x17d c:/altera/14.1/nios2eds/bin/gnu/h-x86_64-mingw32/bin/../lib/gcc/nios2-elf/4.8.3/../../../../../H-x86_64-mingw32/nios2-elf/lib\libc.a(lib_a-s_fpclassify.o)
 .debug_line    0x0000000000005d71      0x242 c:/altera/14.1/nios2eds/bin/gnu/h-x86_64-mingw32/bin/../lib/gcc/nios2-elf/4.8.3/../../../../../H-x86_64-mingw32/nios2-elf/lib\libc.a(lib_a-stdio.o)
 .debug_line    0x0000000000005fb3      0x10e c:/altera/14.1/nios2eds/bin/gnu/h-x86_64-mingw32/bin/../lib/gcc/nios2-elf/4.8.3/../../../../../H-x86_64-mingw32/nios2-elf/lib\libc.a(lib_a-strcmp.o)
 .debug_line    0x00000000000060c1      0x798 c:/altera/14.1/nios2eds/bin/gnu/h-x86_64-mingw32/bin/../lib/gcc/nios2-elf/4.8.3/../../../../../H-x86_64-mingw32/nios2-elf/lib\libc.a(lib_a-vfiprintf.o)
 .debug_line    0x0000000000006859      0x20f c:/altera/14.1/nios2eds/bin/gnu/h-x86_64-mingw32/bin/../lib/gcc/nios2-elf/4.8.3/../../../../../H-x86_64-mingw32/nios2-elf/lib\libc.a(lib_a-writer.o)
 .debug_line    0x0000000000006a68      0x20f c:/altera/14.1/nios2eds/bin/gnu/h-x86_64-mingw32/bin/../lib/gcc/nios2-elf/4.8.3/../../../../../H-x86_64-mingw32/nios2-elf/lib\libc.a(closer.o)
 .debug_line    0x0000000000006c77      0x1c4 c:/altera/14.1/nios2eds/bin/gnu/h-x86_64-mingw32/bin/../lib/gcc/nios2-elf/4.8.3/../../../../../H-x86_64-mingw32/nios2-elf/lib\libc.a(lib_a-callocr.o)
 .debug_line    0x0000000000006e3b      0x264 c:/altera/14.1/nios2eds/bin/gnu/h-x86_64-mingw32/bin/../lib/gcc/nios2-elf/4.8.3/../../../../../H-x86_64-mingw32/nios2-elf/lib\libc.a(lib_a-fclose.o)
 .debug_line    0x000000000000709f      0x26a c:/altera/14.1/nios2eds/bin/gnu/h-x86_64-mingw32/bin/../lib/gcc/nios2-elf/4.8.3/../../../../../H-x86_64-mingw32/nios2-elf/lib\libc.a(lib_a-fputwc.o)
 .debug_line    0x0000000000007309      0x218 c:/altera/14.1/nios2eds/bin/gnu/h-x86_64-mingw32/bin/../lib/gcc/nios2-elf/4.8.3/../../../../../H-x86_64-mingw32/nios2-elf/lib\libc.a(lib_a-fstatr.o)
 .debug_line    0x0000000000007521      0x35d c:/altera/14.1/nios2eds/bin/gnu/h-x86_64-mingw32/bin/../lib/gcc/nios2-elf/4.8.3/../../../../../H-x86_64-mingw32/nios2-elf/lib\libc.a(lib_a-fvwrite.o)
 .debug_line    0x000000000000787e      0x210 c:/altera/14.1/nios2eds/bin/gnu/h-x86_64-mingw32/bin/../lib/gcc/nios2-elf/4.8.3/../../../../../H-x86_64-mingw32/nios2-elf/lib\libc.a(lib_a-isattyr.o)
 .debug_line    0x0000000000007a8e      0x21a c:/altera/14.1/nios2eds/bin/gnu/h-x86_64-mingw32/bin/../lib/gcc/nios2-elf/4.8.3/../../../../../H-x86_64-mingw32/nios2-elf/lib\libc.a(lib_a-lseekr.o)
 .debug_line    0x0000000000007ca8      0x1a7 c:/altera/14.1/nios2eds/bin/gnu/h-x86_64-mingw32/bin/../lib/gcc/nios2-elf/4.8.3/../../../../../H-x86_64-mingw32/nios2-elf/lib\libc.a(lib_a-memmove.o)
 .debug_line    0x0000000000007e4f      0x20e c:/altera/14.1/nios2eds/bin/gnu/h-x86_64-mingw32/bin/../lib/gcc/nios2-elf/4.8.3/../../../../../H-x86_64-mingw32/nios2-elf/lib\libc.a(lib_a-readr.o)
 .debug_line    0x000000000000805d      0x2f4 c:/altera/14.1/nios2eds/bin/gnu/h-x86_64-mingw32/bin/../lib/gcc/nios2-elf/4.8.3/../../../../../H-x86_64-mingw32/nios2-elf/lib\libc.a(lib_a-reallocr.o)
 .debug_line    0x0000000000008351      0x29c c:/altera/14.1/nios2eds/bin/gnu/h-x86_64-mingw32/bin/../lib/gcc/nios2-elf/4.8.3/../../../../../H-x86_64-mingw32/nios2-elf/lib\libc.a(lib_a-wbuf.o)
 .debug_line    0x00000000000085ed      0x22e c:/altera/14.1/nios2eds/bin/gnu/h-x86_64-mingw32/bin/../lib/gcc/nios2-elf/4.8.3/../../../../../H-x86_64-mingw32/nios2-elf/lib\libc.a(lib_a-wcrtomb.o)
 .debug_line    0x000000000000881b      0x227 c:/altera/14.1/nios2eds/bin/gnu/h-x86_64-mingw32/bin/../lib/gcc/nios2-elf/4.8.3/../../../../../H-x86_64-mingw32/nios2-elf/lib\libc.a(lib_a-wctomb_r.o)
 .debug_line    0x0000000000008a42      0x10d c:/altera/14.1/nios2eds/bin/gnu/h-x86_64-mingw32/bin/../lib/gcc/nios2-elf/4.8.3\libgcc.a(_udivdi3.o)
 .debug_line    0x0000000000008b4f      0x120 c:/altera/14.1/nios2eds/bin/gnu/h-x86_64-mingw32/bin/../lib/gcc/nios2-elf/4.8.3\libgcc.a(_umoddi3.o)
 .debug_line    0x0000000000008c6f      0x252 c:/altera/14.1/nios2eds/bin/gnu/h-x86_64-mingw32/bin/../lib/gcc/nios2-elf/4.8.3\libgcc.a(adddf3.o)
 .debug_line    0x0000000000008ec1      0x215 c:/altera/14.1/nios2eds/bin/gnu/h-x86_64-mingw32/bin/../lib/gcc/nios2-elf/4.8.3\libgcc.a(divdf3.o)
 .debug_line    0x00000000000090d6       0x9d c:/altera/14.1/nios2eds/bin/gnu/h-x86_64-mingw32/bin/../lib/gcc/nios2-elf/4.8.3\libgcc.a(eqdf2.o)
 .debug_line    0x0000000000009173       0xaf c:/altera/14.1/nios2eds/bin/gnu/h-x86_64-mingw32/bin/../lib/gcc/nios2-elf/4.8.3\libgcc.a(gedf2.o)
 .debug_line    0x0000000000009222       0xc2 c:/altera/14.1/nios2eds/bin/gnu/h-x86_64-mingw32/bin/../lib/gcc/nios2-elf/4.8.3\libgcc.a(ledf2.o)
 .debug_line    0x00000000000092e4      0x1a4 c:/altera/14.1/nios2eds/bin/gnu/h-x86_64-mingw32/bin/../lib/gcc/nios2-elf/4.8.3\libgcc.a(muldf3.o)
 .debug_line    0x0000000000009488      0x249 c:/altera/14.1/nios2eds/bin/gnu/h-x86_64-mingw32/bin/../lib/gcc/nios2-elf/4.8.3\libgcc.a(subdf3.o)
 .debug_line    0x00000000000096d1       0x93 c:/altera/14.1/nios2eds/bin/gnu/h-x86_64-mingw32/bin/../lib/gcc/nios2-elf/4.8.3\libgcc.a(fixdfsi.o)
 .debug_line    0x0000000000009764       0x95 c:/altera/14.1/nios2eds/bin/gnu/h-x86_64-mingw32/bin/../lib/gcc/nios2-elf/4.8.3\libgcc.a(floatsidf.o)
 .debug_line    0x00000000000097f9       0x91 c:/altera/14.1/nios2eds/bin/gnu/h-x86_64-mingw32/bin/../lib/gcc/nios2-elf/4.8.3\libgcc.a(floatunsidf.o)
 .debug_line    0x000000000000988a       0x53 c:/altera/14.1/nios2eds/bin/gnu/h-x86_64-mingw32/bin/../lib/gcc/nios2-elf/4.8.3\libgcc.a(_clz.o)
 .debug_line    0x00000000000098dd       0x8c c:/altera/14.1/nios2eds/bin/gnu/h-x86_64-mingw32/bin/../lib/gcc/nios2-elf/4.8.3\libgcc.a(_clzsi2.o)
 .debug_line    0x0000000000009969      0x154 ../lab5_bsp/\libucosii_bsp.a(alt_close.o)
 .debug_line    0x0000000000009abd       0x5a ../lab5_bsp/\libucosii_bsp.a(alt_dcache_flush_all.o)
 .debug_line    0x0000000000009b17      0x132 ../lab5_bsp/\libucosii_bsp.a(alt_dev.o)
 .debug_line    0x0000000000009c49       0x51 ../lab5_bsp/\libucosii_bsp.a(alt_errno.o)
 .debug_line    0x0000000000009c9a      0x14b ../lab5_bsp/\libucosii_bsp.a(alt_fstat.o)
 .debug_line    0x0000000000009de5       0xf1 ../lab5_bsp/\libucosii_bsp.a(alt_iic.o)
 .debug_line    0x0000000000009ed6       0xd3 ../lab5_bsp/\libucosii_bsp.a(alt_iic_isr_register.o)
 .debug_line    0x0000000000009fa9       0x6b ../lab5_bsp/\libucosii_bsp.a(alt_irq_entry.o)
 .debug_line    0x000000000000a014       0xed ../lab5_bsp/\libucosii_bsp.a(alt_irq_handler.o)
 .debug_line    0x000000000000a101       0x50 ../lab5_bsp/\libucosii_bsp.a(alt_irq_vars.o)
 .debug_line    0x000000000000a151      0x153 ../lab5_bsp/\libucosii_bsp.a(alt_isatty.o)
 .debug_line    0x000000000000a2a4       0xa6 ../lab5_bsp/\libucosii_bsp.a(alt_load.o)
 .debug_line    0x000000000000a34a      0x154 ../lab5_bsp/\libucosii_bsp.a(alt_lseek.o)
 .debug_line    0x000000000000a49e      0x1f0 ../lab5_bsp/\libucosii_bsp.a(alt_main.o)
 .debug_line    0x000000000000a68e      0x1d3 ../lab5_bsp/\libucosii_bsp.a(alt_read.o)
 .debug_line    0x000000000000a861       0xbb ../lab5_bsp/\libucosii_bsp.a(alt_release_fd.o)
 .debug_line    0x000000000000a91c       0xe5 ../lab5_bsp/\libucosii_bsp.a(alt_sbrk.o)
 .debug_line    0x000000000000aa01      0x116 ../lab5_bsp/\libucosii_bsp.a(alt_tick.o)
 .debug_line    0x000000000000ab17      0x1cb ../lab5_bsp/\libucosii_bsp.a(alt_write.o)
 .debug_line    0x000000000000ace2      0x189 ../lab5_bsp/\libucosii_bsp.a(alt_env_lock.o)
 .debug_line    0x000000000000ae6b      0x1e4 ../lab5_bsp/\libucosii_bsp.a(alt_malloc_lock.o)
 .debug_line    0x000000000000b04f      0x585 ../lab5_bsp/\libucosii_bsp.a(os_core.o)
 .debug_line    0x000000000000b5d4       0xa1 ../lab5_bsp/\libucosii_bsp.a(os_dbg.o)
 .debug_line    0x000000000000b675      0x496 ../lab5_bsp/\libucosii_bsp.a(os_flag.o)
 .debug_line    0x000000000000bb0b      0x228 ../lab5_bsp/\libucosii_bsp.a(os_mem.o)
 .debug_line    0x000000000000bd33      0x3ee ../lab5_bsp/\libucosii_bsp.a(os_q.o)
 .debug_line    0x000000000000c121      0x2d1 ../lab5_bsp/\libucosii_bsp.a(os_sem.o)
 .debug_line    0x000000000000c3f2      0x531 ../lab5_bsp/\libucosii_bsp.a(os_task.o)
 .debug_line    0x000000000000c923      0x19a ../lab5_bsp/\libucosii_bsp.a(os_time.o)
 .debug_line    0x000000000000cabd      0x190 ../lab5_bsp/\libucosii_bsp.a(alt_sys_init.o)
 .debug_line    0x000000000000cc4d      0x144 ../lab5_bsp/\libucosii_bsp.a(altera_avalon_jtag_uart_fd.o)
 .debug_line    0x000000000000cd91      0x218 ../lab5_bsp/\libucosii_bsp.a(altera_avalon_jtag_uart_init.o)
 .debug_line    0x000000000000cfa9      0x137 ../lab5_bsp/\libucosii_bsp.a(altera_avalon_jtag_uart_ioctl.o)
 .debug_line    0x000000000000d0e0      0x1e0 ../lab5_bsp/\libucosii_bsp.a(altera_avalon_jtag_uart_read.o)
 .debug_line    0x000000000000d2c0      0x1e1 ../lab5_bsp/\libucosii_bsp.a(altera_avalon_jtag_uart_write.o)
 .debug_line    0x000000000000d4a1       0xf7 ../lab5_bsp/\libucosii_bsp.a(altera_avalon_timer_sc.o)
 .debug_line    0x000000000000d598       0xef ../lab5_bsp/\libucosii_bsp.a(alt_alarm_start.o)
 .debug_line    0x000000000000d687       0xcc ../lab5_bsp/\libucosii_bsp.a(alt_dev_llist_insert.o)
 .debug_line    0x000000000000d753       0x57 ../lab5_bsp/\libucosii_bsp.a(alt_do_ctors.o)
 .debug_line    0x000000000000d7aa       0x57 ../lab5_bsp/\libucosii_bsp.a(alt_do_dtors.o)
 .debug_line    0x000000000000d801       0xab ../lab5_bsp/\libucosii_bsp.a(alt_exception_entry.o)
 .debug_line    0x000000000000d8ac       0x86 ../lab5_bsp/\libucosii_bsp.a(alt_icache_flush_all.o)
 .debug_line    0x000000000000d932      0x149 ../lab5_bsp/\libucosii_bsp.a(alt_io_redirect.o)
 .debug_line    0x000000000000da7b      0x11c ../lab5_bsp/\libucosii_bsp.a(alt_open.o)
 .debug_line    0x000000000000db97       0x50 ../lab5_bsp/\libucosii_bsp.a(altera_nios2_qsys_irq.o)
 .debug_line    0x000000000000dbe7       0x86 ../lab5_bsp/\libucosii_bsp.a(os_cpu_a.o)
 .debug_line    0x000000000000dc6d      0x18c ../lab5_bsp/\libucosii_bsp.a(os_cpu_c.o)
 .debug_line    0x000000000000ddf9      0x170 ../lab5_bsp/\libucosii_bsp.a(alt_find_dev.o)
 .debug_line    0x000000000000df69      0x188 ../lab5_bsp/\libucosii_bsp.a(alt_find_file.o)
 .debug_line    0x000000000000e0f1      0x11d ../lab5_bsp/\libucosii_bsp.a(alt_get_fd.o)
 .debug_line    0x000000000000e20e       0x7b ../lab5_bsp/\libucosii_bsp.a(alt_icache_flush.o)
 .debug_line    0x000000000000e289       0xef c:/altera/14.1/nios2eds/bin/gnu/h-x86_64-mingw32/bin/../lib/gcc/nios2-elf/4.8.3/../../../../../H-x86_64-mingw32/nios2-elf/lib\libc.a(lib_a-atexit.o)
 .debug_line    0x000000000000e378      0x215 c:/altera/14.1/nios2eds/bin/gnu/h-x86_64-mingw32/bin/../lib/gcc/nios2-elf/4.8.3/../../../../../H-x86_64-mingw32/nios2-elf/lib\libc.a(lib_a-exit.o)
 .debug_line    0x000000000000e58d      0x18b c:/altera/14.1/nios2eds/bin/gnu/h-x86_64-mingw32/bin/../lib/gcc/nios2-elf/4.8.3/../../../../../H-x86_64-mingw32/nios2-elf/lib\libc.a(lib_a-memcmp.o)
 .debug_line    0x000000000000e718      0x23a c:/altera/14.1/nios2eds/bin/gnu/h-x86_64-mingw32/bin/../lib/gcc/nios2-elf/4.8.3/../../../../../H-x86_64-mingw32/nios2-elf/lib\libc.a(lib_a-__atexit.o)
 .debug_line    0x000000000000e952      0x25d c:/altera/14.1/nios2eds/bin/gnu/h-x86_64-mingw32/bin/../lib/gcc/nios2-elf/4.8.3/../../../../../H-x86_64-mingw32/nios2-elf/lib\libc.a(lib_a-__call_atexit.o)
 .debug_line    0x000000000000ebaf       0xc2 ../lab5_bsp/\libucosii_bsp.a(alt_exit.o)

.debug_frame    0x0000000000000000     0x365c
 *(.debug_frame)
 .debug_frame   0x0000000000000000      0x248 obj/default/drivers/drivers.o
 .debug_frame   0x0000000000000248       0x60 obj/default/frame.o
 .debug_frame   0x00000000000002a8      0x124 obj/default/graphic_lib/draw_gimps.o
 .debug_frame   0x00000000000003cc       0xb0 obj/default/graphic_lib/gimp_bmp.o
 .debug_frame   0x000000000000047c      0x524 obj/default/graphic_lib/simple_graphics.o
 .debug_frame   0x00000000000009a0      0x140 obj/default/graphic_lib/simple_text.o
 .debug_frame   0x0000000000000ae0      0x124 obj/default/hello_ucosii.o
 .debug_frame   0x0000000000000c04       0x3c obj/default/student_code/student_code.o
 .debug_frame   0x0000000000000c40      0x13c obj/default/vip_fr.o
 .debug_frame   0x0000000000000d7c       0x80 c:/altera/14.1/nios2eds/bin/gnu/h-x86_64-mingw32/bin/../lib/gcc/nios2-elf/4.8.3\libgcc.a(lib2-divmod.o)
 .debug_frame   0x0000000000000dfc       0x20 c:/altera/14.1/nios2eds/bin/gnu/h-x86_64-mingw32/bin/../lib/gcc/nios2-elf/4.8.3\libgcc.a(fixsfsi.o)
 .debug_frame   0x0000000000000e1c       0x30 c:/altera/14.1/nios2eds/bin/gnu/h-x86_64-mingw32/bin/../lib/gcc/nios2-elf/4.8.3/../../../../../H-x86_64-mingw32/nios2-elf/lib\libc.a(lib_a-malloc.o)
 .debug_frame   0x0000000000000e4c       0x54 c:/altera/14.1/nios2eds/bin/gnu/h-x86_64-mingw32/bin/../lib/gcc/nios2-elf/4.8.3/../../../../../H-x86_64-mingw32/nios2-elf/lib\libc.a(lib_a-mallocr.o)
 .debug_frame   0x0000000000000ea0       0x20 c:/altera/14.1/nios2eds/bin/gnu/h-x86_64-mingw32/bin/../lib/gcc/nios2-elf/4.8.3/../../../../../H-x86_64-mingw32/nios2-elf/lib\libc.a(lib_a-memcpy.o)
 .debug_frame   0x0000000000000ec0       0x20 c:/altera/14.1/nios2eds/bin/gnu/h-x86_64-mingw32/bin/../lib/gcc/nios2-elf/4.8.3/../../../../../H-x86_64-mingw32/nios2-elf/lib\libc.a(lib_a-memset.o)
 .debug_frame   0x0000000000000ee0       0x48 c:/altera/14.1/nios2eds/bin/gnu/h-x86_64-mingw32/bin/../lib/gcc/nios2-elf/4.8.3/../../../../../H-x86_64-mingw32/nios2-elf/lib\libc.a(lib_a-printf.o)
 .debug_frame   0x0000000000000f28       0x40 c:/altera/14.1/nios2eds/bin/gnu/h-x86_64-mingw32/bin/../lib/gcc/nios2-elf/4.8.3/../../../../../H-x86_64-mingw32/nios2-elf/lib\libc.a(lib_a-sbrkr.o)
 .debug_frame   0x0000000000000f68       0x20 c:/altera/14.1/nios2eds/bin/gnu/h-x86_64-mingw32/bin/../lib/gcc/nios2-elf/4.8.3/../../../../../H-x86_64-mingw32/nios2-elf/lib\libc.a(lib_a-strcpy.o)
 .debug_frame   0x0000000000000f88       0x20 c:/altera/14.1/nios2eds/bin/gnu/h-x86_64-mingw32/bin/../lib/gcc/nios2-elf/4.8.3/../../../../../H-x86_64-mingw32/nios2-elf/lib\libc.a(lib_a-strlen.o)
 .debug_frame   0x0000000000000fa8       0x68 c:/altera/14.1/nios2eds/bin/gnu/h-x86_64-mingw32/bin/../lib/gcc/nios2-elf/4.8.3/../../../../../H-x86_64-mingw32/nios2-elf/lib\libc.a(lib_a-vfprintf.o)
 .debug_frame   0x0000000000001010       0x38 c:/altera/14.1/nios2eds/bin/gnu/h-x86_64-mingw32/bin/../lib/gcc/nios2-elf/4.8.3/../../../../../H-x86_64-mingw32/nios2-elf/lib\libc.a(lib_a-wsetup.o)
 .debug_frame   0x0000000000001048       0x98 c:/altera/14.1/nios2eds/bin/gnu/h-x86_64-mingw32/bin/../lib/gcc/nios2-elf/4.8.3/../../../../../H-x86_64-mingw32/nios2-elf/lib\libc.a(lib_a-dtoa.o)
 .debug_frame   0x00000000000010e0       0x60 c:/altera/14.1/nios2eds/bin/gnu/h-x86_64-mingw32/bin/../lib/gcc/nios2-elf/4.8.3/../../../../../H-x86_64-mingw32/nios2-elf/lib\libc.a(lib_a-fflush.o)
 .debug_frame   0x0000000000001140      0x14c c:/altera/14.1/nios2eds/bin/gnu/h-x86_64-mingw32/bin/../lib/gcc/nios2-elf/4.8.3/../../../../../H-x86_64-mingw32/nios2-elf/lib\libc.a(lib_a-findfp.o)
 .debug_frame   0x000000000000128c       0x94 c:/altera/14.1/nios2eds/bin/gnu/h-x86_64-mingw32/bin/../lib/gcc/nios2-elf/4.8.3/../../../../../H-x86_64-mingw32/nios2-elf/lib\libc.a(lib_a-freer.o)
 .debug_frame   0x0000000000001320       0x84 c:/altera/14.1/nios2eds/bin/gnu/h-x86_64-mingw32/bin/../lib/gcc/nios2-elf/4.8.3/../../../../../H-x86_64-mingw32/nios2-elf/lib\libc.a(lib_a-fwalk.o)
 .debug_frame   0x00000000000013a4       0xa4 c:/altera/14.1/nios2eds/bin/gnu/h-x86_64-mingw32/bin/../lib/gcc/nios2-elf/4.8.3/../../../../../H-x86_64-mingw32/nios2-elf/lib\libc.a(lib_a-locale.o)
 .debug_frame   0x0000000000001448       0x40 c:/altera/14.1/nios2eds/bin/gnu/h-x86_64-mingw32/bin/../lib/gcc/nios2-elf/4.8.3/../../../../../H-x86_64-mingw32/nios2-elf/lib\libc.a(lib_a-makebuf.o)
 .debug_frame   0x0000000000001488       0x20 c:/altera/14.1/nios2eds/bin/gnu/h-x86_64-mingw32/bin/../lib/gcc/nios2-elf/4.8.3/../../../../../H-x86_64-mingw32/nios2-elf/lib\libc.a(lib_a-memchr.o)
 .debug_frame   0x00000000000014a8      0x2d4 c:/altera/14.1/nios2eds/bin/gnu/h-x86_64-mingw32/bin/../lib/gcc/nios2-elf/4.8.3/../../../../../H-x86_64-mingw32/nios2-elf/lib\libc.a(lib_a-mprec.o)
 .debug_frame   0x000000000000177c       0x20 c:/altera/14.1/nios2eds/bin/gnu/h-x86_64-mingw32/bin/../lib/gcc/nios2-elf/4.8.3/../../../../../H-x86_64-mingw32/nios2-elf/lib\libc.a(lib_a-s_fpclassify.o)
 .debug_frame   0x000000000000179c       0xb4 c:/altera/14.1/nios2eds/bin/gnu/h-x86_64-mingw32/bin/../lib/gcc/nios2-elf/4.8.3/../../../../../H-x86_64-mingw32/nios2-elf/lib\libc.a(lib_a-stdio.o)
 .debug_frame   0x0000000000001850       0x20 c:/altera/14.1/nios2eds/bin/gnu/h-x86_64-mingw32/bin/../lib/gcc/nios2-elf/4.8.3/../../../../../H-x86_64-mingw32/nios2-elf/lib\libc.a(lib_a-strcmp.o)
 .debug_frame   0x0000000000001870       0xbc c:/altera/14.1/nios2eds/bin/gnu/h-x86_64-mingw32/bin/../lib/gcc/nios2-elf/4.8.3/../../../../../H-x86_64-mingw32/nios2-elf/lib\libc.a(lib_a-vfiprintf.o)
 .debug_frame   0x000000000000192c       0x40 c:/altera/14.1/nios2eds/bin/gnu/h-x86_64-mingw32/bin/../lib/gcc/nios2-elf/4.8.3/../../../../../H-x86_64-mingw32/nios2-elf/lib\libc.a(lib_a-writer.o)
 .debug_frame   0x000000000000196c       0x40 c:/altera/14.1/nios2eds/bin/gnu/h-x86_64-mingw32/bin/../lib/gcc/nios2-elf/4.8.3/../../../../../H-x86_64-mingw32/nios2-elf/lib\libc.a(closer.o)
 .debug_frame   0x00000000000019ac       0x40 c:/altera/14.1/nios2eds/bin/gnu/h-x86_64-mingw32/bin/../lib/gcc/nios2-elf/4.8.3/../../../../../H-x86_64-mingw32/nios2-elf/lib\libc.a(lib_a-callocr.o)
 .debug_frame   0x00000000000019ec       0x68 c:/altera/14.1/nios2eds/bin/gnu/h-x86_64-mingw32/bin/../lib/gcc/nios2-elf/4.8.3/../../../../../H-x86_64-mingw32/nios2-elf/lib\libc.a(lib_a-fclose.o)
 .debug_frame   0x0000000000001a54       0x78 c:/altera/14.1/nios2eds/bin/gnu/h-x86_64-mingw32/bin/../lib/gcc/nios2-elf/4.8.3/../../../../../H-x86_64-mingw32/nios2-elf/lib\libc.a(lib_a-fputwc.o)
 .debug_frame   0x0000000000001acc       0x40 c:/altera/14.1/nios2eds/bin/gnu/h-x86_64-mingw32/bin/../lib/gcc/nios2-elf/4.8.3/../../../../../H-x86_64-mingw32/nios2-elf/lib\libc.a(lib_a-fstatr.o)
 .debug_frame   0x0000000000001b0c       0x54 c:/altera/14.1/nios2eds/bin/gnu/h-x86_64-mingw32/bin/../lib/gcc/nios2-elf/4.8.3/../../../../../H-x86_64-mingw32/nios2-elf/lib\libc.a(lib_a-fvwrite.o)
 .debug_frame   0x0000000000001b60       0x40 c:/altera/14.1/nios2eds/bin/gnu/h-x86_64-mingw32/bin/../lib/gcc/nios2-elf/4.8.3/../../../../../H-x86_64-mingw32/nios2-elf/lib\libc.a(lib_a-isattyr.o)
 .debug_frame   0x0000000000001ba0       0x40 c:/altera/14.1/nios2eds/bin/gnu/h-x86_64-mingw32/bin/../lib/gcc/nios2-elf/4.8.3/../../../../../H-x86_64-mingw32/nios2-elf/lib\libc.a(lib_a-lseekr.o)
 .debug_frame   0x0000000000001be0       0x20 c:/altera/14.1/nios2eds/bin/gnu/h-x86_64-mingw32/bin/../lib/gcc/nios2-elf/4.8.3/../../../../../H-x86_64-mingw32/nios2-elf/lib\libc.a(lib_a-memmove.o)
 .debug_frame   0x0000000000001c00       0x40 c:/altera/14.1/nios2eds/bin/gnu/h-x86_64-mingw32/bin/../lib/gcc/nios2-elf/4.8.3/../../../../../H-x86_64-mingw32/nios2-elf/lib\libc.a(lib_a-readr.o)
 .debug_frame   0x0000000000001c40       0x70 c:/altera/14.1/nios2eds/bin/gnu/h-x86_64-mingw32/bin/../lib/gcc/nios2-elf/4.8.3/../../../../../H-x86_64-mingw32/nios2-elf/lib\libc.a(lib_a-reallocr.o)
 .debug_frame   0x0000000000001cb0       0x4c c:/altera/14.1/nios2eds/bin/gnu/h-x86_64-mingw32/bin/../lib/gcc/nios2-elf/4.8.3/../../../../../H-x86_64-mingw32/nios2-elf/lib\libc.a(lib_a-wbuf.o)
 .debug_frame   0x0000000000001cfc       0x74 c:/altera/14.1/nios2eds/bin/gnu/h-x86_64-mingw32/bin/../lib/gcc/nios2-elf/4.8.3/../../../../../H-x86_64-mingw32/nios2-elf/lib\libc.a(lib_a-wcrtomb.o)
 .debug_frame   0x0000000000001d70       0x44 c:/altera/14.1/nios2eds/bin/gnu/h-x86_64-mingw32/bin/../lib/gcc/nios2-elf/4.8.3/../../../../../H-x86_64-mingw32/nios2-elf/lib\libc.a(lib_a-wctomb_r.o)
 .debug_frame   0x0000000000001db4       0x54 c:/altera/14.1/nios2eds/bin/gnu/h-x86_64-mingw32/bin/../lib/gcc/nios2-elf/4.8.3\libgcc.a(_udivdi3.o)
 .debug_frame   0x0000000000001e08       0x54 c:/altera/14.1/nios2eds/bin/gnu/h-x86_64-mingw32/bin/../lib/gcc/nios2-elf/4.8.3\libgcc.a(_umoddi3.o)
 .debug_frame   0x0000000000001e5c       0x40 c:/altera/14.1/nios2eds/bin/gnu/h-x86_64-mingw32/bin/../lib/gcc/nios2-elf/4.8.3\libgcc.a(adddf3.o)
 .debug_frame   0x0000000000001e9c       0x58 c:/altera/14.1/nios2eds/bin/gnu/h-x86_64-mingw32/bin/../lib/gcc/nios2-elf/4.8.3\libgcc.a(divdf3.o)
 .debug_frame   0x0000000000001ef4       0x20 c:/altera/14.1/nios2eds/bin/gnu/h-x86_64-mingw32/bin/../lib/gcc/nios2-elf/4.8.3\libgcc.a(eqdf2.o)
 .debug_frame   0x0000000000001f14       0x20 c:/altera/14.1/nios2eds/bin/gnu/h-x86_64-mingw32/bin/../lib/gcc/nios2-elf/4.8.3\libgcc.a(gedf2.o)
 .debug_frame   0x0000000000001f34       0x20 c:/altera/14.1/nios2eds/bin/gnu/h-x86_64-mingw32/bin/../lib/gcc/nios2-elf/4.8.3\libgcc.a(ledf2.o)
 .debug_frame   0x0000000000001f54       0x58 c:/altera/14.1/nios2eds/bin/gnu/h-x86_64-mingw32/bin/../lib/gcc/nios2-elf/4.8.3\libgcc.a(muldf3.o)
 .debug_frame   0x0000000000001fac       0x40 c:/altera/14.1/nios2eds/bin/gnu/h-x86_64-mingw32/bin/../lib/gcc/nios2-elf/4.8.3\libgcc.a(subdf3.o)
 .debug_frame   0x0000000000001fec       0x20 c:/altera/14.1/nios2eds/bin/gnu/h-x86_64-mingw32/bin/../lib/gcc/nios2-elf/4.8.3\libgcc.a(fixdfsi.o)
 .debug_frame   0x000000000000200c       0x38 c:/altera/14.1/nios2eds/bin/gnu/h-x86_64-mingw32/bin/../lib/gcc/nios2-elf/4.8.3\libgcc.a(floatsidf.o)
 .debug_frame   0x0000000000002044       0x34 c:/altera/14.1/nios2eds/bin/gnu/h-x86_64-mingw32/bin/../lib/gcc/nios2-elf/4.8.3\libgcc.a(floatunsidf.o)
 .debug_frame   0x0000000000002078       0x20 c:/altera/14.1/nios2eds/bin/gnu/h-x86_64-mingw32/bin/../lib/gcc/nios2-elf/4.8.3\libgcc.a(_clzsi2.o)
 .debug_frame   0x0000000000002098       0x34 ../lab5_bsp/\libucosii_bsp.a(alt_close.o)
 .debug_frame   0x00000000000020cc       0x20 ../lab5_bsp/\libucosii_bsp.a(alt_dcache_flush_all.o)
 .debug_frame   0x00000000000020ec       0x20 ../lab5_bsp/\libucosii_bsp.a(alt_dev.o)
 .debug_frame   0x000000000000210c       0x2c ../lab5_bsp/\libucosii_bsp.a(alt_fstat.o)
 .debug_frame   0x0000000000002138       0x5c ../lab5_bsp/\libucosii_bsp.a(alt_iic.o)
 .debug_frame   0x0000000000002194       0x3c ../lab5_bsp/\libucosii_bsp.a(alt_iic_isr_register.o)
 .debug_frame   0x00000000000021d0       0x38 ../lab5_bsp/\libucosii_bsp.a(alt_irq_handler.o)
 .debug_frame   0x0000000000002208       0x2c ../lab5_bsp/\libucosii_bsp.a(alt_isatty.o)
 .debug_frame   0x0000000000002234       0x30 ../lab5_bsp/\libucosii_bsp.a(alt_load.o)
 .debug_frame   0x0000000000002264       0x30 ../lab5_bsp/\libucosii_bsp.a(alt_lseek.o)
 .debug_frame   0x0000000000002294       0x2c ../lab5_bsp/\libucosii_bsp.a(alt_main.o)
 .debug_frame   0x00000000000022c0       0x30 ../lab5_bsp/\libucosii_bsp.a(alt_read.o)
 .debug_frame   0x00000000000022f0       0x20 ../lab5_bsp/\libucosii_bsp.a(alt_release_fd.o)
 .debug_frame   0x0000000000002310       0x20 ../lab5_bsp/\libucosii_bsp.a(alt_sbrk.o)
 .debug_frame   0x0000000000002330       0x4c ../lab5_bsp/\libucosii_bsp.a(alt_tick.o)
 .debug_frame   0x000000000000237c       0x30 ../lab5_bsp/\libucosii_bsp.a(alt_write.o)
 .debug_frame   0x00000000000023ac       0x4c ../lab5_bsp/\libucosii_bsp.a(alt_env_lock.o)
 .debug_frame   0x00000000000023f8       0x58 ../lab5_bsp/\libucosii_bsp.a(alt_malloc_lock.o)
 .debug_frame   0x0000000000002450      0x318 ../lab5_bsp/\libucosii_bsp.a(os_core.o)
 .debug_frame   0x0000000000002768       0x20 ../lab5_bsp/\libucosii_bsp.a(os_dbg.o)
 .debug_frame   0x0000000000002788      0x1b0 ../lab5_bsp/\libucosii_bsp.a(os_flag.o)
 .debug_frame   0x0000000000002938       0xc0 ../lab5_bsp/\libucosii_bsp.a(os_mem.o)
 .debug_frame   0x00000000000029f8      0x1ac ../lab5_bsp/\libucosii_bsp.a(os_q.o)
 .debug_frame   0x0000000000002ba4      0x12c ../lab5_bsp/\libucosii_bsp.a(os_sem.o)
 .debug_frame   0x0000000000002cd0      0x1d8 ../lab5_bsp/\libucosii_bsp.a(os_task.o)
 .debug_frame   0x0000000000002ea8       0xa8 ../lab5_bsp/\libucosii_bsp.a(os_time.o)
 .debug_frame   0x0000000000002f50       0x4c ../lab5_bsp/\libucosii_bsp.a(alt_sys_init.o)
 .debug_frame   0x0000000000002f9c       0x80 ../lab5_bsp/\libucosii_bsp.a(altera_avalon_jtag_uart_fd.o)
 .debug_frame   0x000000000000301c       0xac ../lab5_bsp/\libucosii_bsp.a(altera_avalon_jtag_uart_init.o)
 .debug_frame   0x00000000000030c8       0x20 ../lab5_bsp/\libucosii_bsp.a(altera_avalon_jtag_uart_ioctl.o)
 .debug_frame   0x00000000000030e8       0x54 ../lab5_bsp/\libucosii_bsp.a(altera_avalon_jtag_uart_read.o)
 .debug_frame   0x000000000000313c       0x54 ../lab5_bsp/\libucosii_bsp.a(altera_avalon_jtag_uart_write.o)
 .debug_frame   0x0000000000003190       0x4c ../lab5_bsp/\libucosii_bsp.a(altera_avalon_timer_sc.o)
 .debug_frame   0x00000000000031dc       0x20 ../lab5_bsp/\libucosii_bsp.a(alt_alarm_start.o)
 .debug_frame   0x00000000000031fc       0x40 ../lab5_bsp/\libucosii_bsp.a(alt_dev_llist_insert.o)
 .debug_frame   0x000000000000323c       0x38 ../lab5_bsp/\libucosii_bsp.a(alt_do_ctors.o)
 .debug_frame   0x0000000000003274       0x38 ../lab5_bsp/\libucosii_bsp.a(alt_do_dtors.o)
 .debug_frame   0x00000000000032ac       0x2c ../lab5_bsp/\libucosii_bsp.a(alt_icache_flush_all.o)
 .debug_frame   0x00000000000032d8       0x60 ../lab5_bsp/\libucosii_bsp.a(alt_io_redirect.o)
 .debug_frame   0x0000000000003338       0x48 ../lab5_bsp/\libucosii_bsp.a(alt_open.o)
 .debug_frame   0x0000000000003380       0x20 ../lab5_bsp/\libucosii_bsp.a(altera_nios2_qsys_irq.o)
 .debug_frame   0x00000000000033a0       0xcc ../lab5_bsp/\libucosii_bsp.a(os_cpu_c.o)
 .debug_frame   0x000000000000346c       0x3c ../lab5_bsp/\libucosii_bsp.a(alt_find_dev.o)
 .debug_frame   0x00000000000034a8       0x40 ../lab5_bsp/\libucosii_bsp.a(alt_find_file.o)
 .debug_frame   0x00000000000034e8       0x34 ../lab5_bsp/\libucosii_bsp.a(alt_get_fd.o)
 .debug_frame   0x000000000000351c       0x20 ../lab5_bsp/\libucosii_bsp.a(alt_icache_flush.o)
 .debug_frame   0x000000000000353c       0x20 c:/altera/14.1/nios2eds/bin/gnu/h-x86_64-mingw32/bin/../lib/gcc/nios2-elf/4.8.3/../../../../../H-x86_64-mingw32/nios2-elf/lib\libc.a(lib_a-atexit.o)
 .debug_frame   0x000000000000355c       0x28 c:/altera/14.1/nios2eds/bin/gnu/h-x86_64-mingw32/bin/../lib/gcc/nios2-elf/4.8.3/../../../../../H-x86_64-mingw32/nios2-elf/lib\libc.a(lib_a-exit.o)
 .debug_frame   0x0000000000003584       0x20 c:/altera/14.1/nios2eds/bin/gnu/h-x86_64-mingw32/bin/../lib/gcc/nios2-elf/4.8.3/../../../../../H-x86_64-mingw32/nios2-elf/lib\libc.a(lib_a-memcmp.o)
 .debug_frame   0x00000000000035a4       0x44 c:/altera/14.1/nios2eds/bin/gnu/h-x86_64-mingw32/bin/../lib/gcc/nios2-elf/4.8.3/../../../../../H-x86_64-mingw32/nios2-elf/lib\libc.a(lib_a-__atexit.o)
 .debug_frame   0x00000000000035e8       0x54 c:/altera/14.1/nios2eds/bin/gnu/h-x86_64-mingw32/bin/../lib/gcc/nios2-elf/4.8.3/../../../../../H-x86_64-mingw32/nios2-elf/lib\libc.a(lib_a-__call_atexit.o)
 .debug_frame   0x000000000000363c       0x20 ../lab5_bsp/\libucosii_bsp.a(alt_exit.o)

.debug_str      0x0000000000000000     0x637f
 *(.debug_str)
 .debug_str     0x0000000000000000      0x290 obj/default/drivers/drivers.o
                                        0x2e8 (size before relaxing)
 .debug_str     0x0000000000000290      0x73c obj/default/fonts/tahomabold_20.o
                                        0x7b0 (size before relaxing)
 .debug_str     0x00000000000009cc      0x67d obj/default/fonts/tahomabold_32.o
                                        0x7b0 (size before relaxing)
 .debug_str     0x0000000000001049      0x29b obj/default/frame.o
                                        0x3be (size before relaxing)
 .debug_str     0x00000000000012e4      0x1fa obj/default/graphic_lib/draw_gimps.o
                                        0x3d2 (size before relaxing)
 .debug_str     0x00000000000014de      0x1a3 obj/default/graphic_lib/gimp_bmp.o
                                        0x35f (size before relaxing)
 .debug_str     0x0000000000001681      0x687 obj/default/graphic_lib/simple_graphics.o
                                        0x913 (size before relaxing)
 .debug_str     0x0000000000001d08      0x16b obj/default/graphic_lib/simple_text.o
                                        0x480 (size before relaxing)
 .debug_str     0x0000000000001e73      0x1d9 obj/default/hello_ucosii.o
                                        0x5aa (size before relaxing)
 .debug_str     0x000000000000204c       0x15 obj/default/imagenes/back_down.o
                                         0xf6 (size before relaxing)
 .debug_str     0x0000000000002061       0x13 obj/default/imagenes/back_up.o
                                         0xf2 (size before relaxing)
 .debug_str     0x0000000000002074       0x15 obj/default/imagenes/ford_down.o
                                         0xf6 (size before relaxing)
 .debug_str     0x0000000000002089       0x13 obj/default/imagenes/ford_up.o
                                         0xf2 (size before relaxing)
 .debug_str     0x000000000000209c       0x16 obj/default/imagenes/pause_down.o
                                         0xf8 (size before relaxing)
 .debug_str     0x00000000000020b2       0x14 obj/default/imagenes/pause_up.o
                                         0xf4 (size before relaxing)
 .debug_str     0x00000000000020c6       0x15 obj/default/imagenes/play_down.o
                                         0xf6 (size before relaxing)
 .debug_str     0x00000000000020db       0x13 obj/default/imagenes/play_up.o
                                         0xf2 (size before relaxing)
 .debug_str     0x00000000000020ee       0x15 obj/default/imagenes/stop_down.o
                                         0xf6 (size before relaxing)
 .debug_str     0x0000000000002103       0x13 obj/default/imagenes/stop_up.o
                                         0xf2 (size before relaxing)
 .debug_str     0x0000000000002116        0xc obj/default/song/song.o
                                         0xca (size before relaxing)
 .debug_str     0x0000000000002122       0x54 obj/default/student_code/student_code.o
                                        0x1b4 (size before relaxing)
 .debug_str     0x0000000000002176      0x10b obj/default/vip_fr.o
                                        0x36e (size before relaxing)
 .debug_str     0x0000000000002281      0x17f c:/altera/14.1/nios2eds/bin/gnu/h-x86_64-mingw32/bin/../lib/gcc/nios2-elf/4.8.3\libgcc.a(lib2-divmod.o)
                                        0x1ca (size before relaxing)
 .debug_str     0x0000000000002400       0x62 c:/altera/14.1/nios2eds/bin/gnu/h-x86_64-mingw32/bin/../lib/gcc/nios2-elf/4.8.3\libgcc.a(fixsfsi.o)
                                        0x1f6 (size before relaxing)
 .debug_str     0x0000000000002462      0x469 c:/altera/14.1/nios2eds/bin/gnu/h-x86_64-mingw32/bin/../lib/gcc/nios2-elf/4.8.3/../../../../../H-x86_64-mingw32/nios2-elf/lib\libc.a(lib_a-malloc.o)
                                        0x58b (size before relaxing)
 .debug_str     0x00000000000028cb      0x228 c:/altera/14.1/nios2eds/bin/gnu/h-x86_64-mingw32/bin/../lib/gcc/nios2-elf/4.8.3/../../../../../H-x86_64-mingw32/nios2-elf/lib\libc.a(lib_a-mallocr.o)
                                        0x786 (size before relaxing)
 .debug_str     0x0000000000002af3       0xef c:/altera/14.1/nios2eds/bin/gnu/h-x86_64-mingw32/bin/../lib/gcc/nios2-elf/4.8.3/../../../../../H-x86_64-mingw32/nios2-elf/lib\libc.a(lib_a-memcpy.o)
                                        0x1d4 (size before relaxing)
 .debug_str     0x0000000000002be2       0x48 c:/altera/14.1/nios2eds/bin/gnu/h-x86_64-mingw32/bin/../lib/gcc/nios2-elf/4.8.3/../../../../../H-x86_64-mingw32/nios2-elf/lib\libc.a(lib_a-memset.o)
                                        0x1c1 (size before relaxing)
 .debug_str     0x0000000000002c2a      0x11c c:/altera/14.1/nios2eds/bin/gnu/h-x86_64-mingw32/bin/../lib/gcc/nios2-elf/4.8.3/../../../../../H-x86_64-mingw32/nios2-elf/lib\libc.a(lib_a-printf.o)
                                        0x5c2 (size before relaxing)
 .debug_str     0x0000000000002d46       0xca c:/altera/14.1/nios2eds/bin/gnu/h-x86_64-mingw32/bin/../lib/gcc/nios2-elf/4.8.3/../../../../../H-x86_64-mingw32/nios2-elf/lib\libc.a(lib_a-sbrkr.o)
                                        0x56d (size before relaxing)
 .debug_str     0x0000000000002e10       0x3b c:/altera/14.1/nios2eds/bin/gnu/h-x86_64-mingw32/bin/../lib/gcc/nios2-elf/4.8.3/../../../../../H-x86_64-mingw32/nios2-elf/lib\libc.a(lib_a-strcpy.o)
                                        0x1c8 (size before relaxing)
 .debug_str     0x0000000000002e4b       0x3b c:/altera/14.1/nios2eds/bin/gnu/h-x86_64-mingw32/bin/../lib/gcc/nios2-elf/4.8.3/../../../../../H-x86_64-mingw32/nios2-elf/lib\libc.a(lib_a-strlen.o)
                                        0x1c0 (size before relaxing)
 .debug_str     0x0000000000002e86      0x33c c:/altera/14.1/nios2eds/bin/gnu/h-x86_64-mingw32/bin/../lib/gcc/nios2-elf/4.8.3/../../../../../H-x86_64-mingw32/nios2-elf/lib\libc.a(lib_a-vfprintf.o)
                                        0x956 (size before relaxing)
 .debug_str     0x00000000000031c2       0x47 c:/altera/14.1/nios2eds/bin/gnu/h-x86_64-mingw32/bin/../lib/gcc/nios2-elf/4.8.3/../../../../../H-x86_64-mingw32/nios2-elf/lib\libc.a(lib_a-wsetup.o)
                                        0x586 (size before relaxing)
 .debug_str     0x0000000000003209      0x151 c:/altera/14.1/nios2eds/bin/gnu/h-x86_64-mingw32/bin/../lib/gcc/nios2-elf/4.8.3/../../../../../H-x86_64-mingw32/nios2-elf/lib\libc.a(lib_a-dtoa.o)
                                        0x6c9 (size before relaxing)
 .debug_str     0x000000000000335a       0x65 c:/altera/14.1/nios2eds/bin/gnu/h-x86_64-mingw32/bin/../lib/gcc/nios2-elf/4.8.3/../../../../../H-x86_64-mingw32/nios2-elf/lib\libc.a(lib_a-fflush.o)
                                        0x5b6 (size before relaxing)
 .debug_str     0x00000000000033bf       0xfa c:/altera/14.1/nios2eds/bin/gnu/h-x86_64-mingw32/bin/../lib/gcc/nios2-elf/4.8.3/../../../../../H-x86_64-mingw32/nios2-elf/lib\libc.a(lib_a-findfp.o)
                                        0x670 (size before relaxing)
 .debug_str     0x00000000000034b9       0x34 c:/altera/14.1/nios2eds/bin/gnu/h-x86_64-mingw32/bin/../lib/gcc/nios2-elf/4.8.3/../../../../../H-x86_64-mingw32/nios2-elf/lib\libc.a(lib_a-freer.o)
                                        0x6d0 (size before relaxing)
 .debug_str     0x00000000000034ed       0x5e c:/altera/14.1/nios2eds/bin/gnu/h-x86_64-mingw32/bin/../lib/gcc/nios2-elf/4.8.3/../../../../../H-x86_64-mingw32/nios2-elf/lib\libc.a(lib_a-fwalk.o)
                                        0x5b8 (size before relaxing)
 .debug_str     0x000000000000354b       0x46 c:/altera/14.1/nios2eds/bin/gnu/h-x86_64-mingw32/bin/../lib/gcc/nios2-elf/4.8.3/../../../../../H-x86_64-mingw32/nios2-elf/lib\libc.a(lib_a-impure.o)
                                        0x577 (size before relaxing)
 .debug_str     0x0000000000003591       0x3d c:/altera/14.1/nios2eds/bin/gnu/h-x86_64-mingw32/bin/../lib/gcc/nios2-elf/4.8.3/../../../../../H-x86_64-mingw32/nios2-elf/lib\libc.a(lib_a-int_errno.o)
                                        0x1a6 (size before relaxing)
 .debug_str     0x00000000000035ce      0x1af c:/altera/14.1/nios2eds/bin/gnu/h-x86_64-mingw32/bin/../lib/gcc/nios2-elf/4.8.3/../../../../../H-x86_64-mingw32/nios2-elf/lib\libc.a(lib_a-locale.o)
                                        0x7d4 (size before relaxing)
 .debug_str     0x000000000000377d      0x129 c:/altera/14.1/nios2eds/bin/gnu/h-x86_64-mingw32/bin/../lib/gcc/nios2-elf/4.8.3/../../../../../H-x86_64-mingw32/nios2-elf/lib\libc.a(lib_a-makebuf.o)
                                        0x680 (size before relaxing)
 .debug_str     0x00000000000038a6       0x49 c:/altera/14.1/nios2eds/bin/gnu/h-x86_64-mingw32/bin/../lib/gcc/nios2-elf/4.8.3/../../../../../H-x86_64-mingw32/nios2-elf/lib\libc.a(lib_a-memchr.o)
                                        0x1c7 (size before relaxing)
 .debug_str     0x00000000000038ef       0xa5 c:/altera/14.1/nios2eds/bin/gnu/h-x86_64-mingw32/bin/../lib/gcc/nios2-elf/4.8.3/../../../../../H-x86_64-mingw32/nios2-elf/lib\libc.a(lib_a-mprec.o)
                                        0x683 (size before relaxing)
 .debug_str     0x0000000000003994       0xce c:/altera/14.1/nios2eds/bin/gnu/h-x86_64-mingw32/bin/../lib/gcc/nios2-elf/4.8.3/../../../../../H-x86_64-mingw32/nios2-elf/lib\libc.a(lib_a-s_fpclassify.o)
                                        0x1d7 (size before relaxing)
 .debug_str     0x0000000000003a62       0x99 c:/altera/14.1/nios2eds/bin/gnu/h-x86_64-mingw32/bin/../lib/gcc/nios2-elf/4.8.3/../../../../../H-x86_64-mingw32/nios2-elf/lib\libc.a(lib_a-stdio.o)
                                        0x5d1 (size before relaxing)
 .debug_str     0x0000000000003afb       0x3b c:/altera/14.1/nios2eds/bin/gnu/h-x86_64-mingw32/bin/../lib/gcc/nios2-elf/4.8.3/../../../../../H-x86_64-mingw32/nios2-elf/lib\libc.a(lib_a-strcmp.o)
                                        0x1a6 (size before relaxing)
 .debug_str     0x0000000000003b36       0x4c c:/altera/14.1/nios2eds/bin/gnu/h-x86_64-mingw32/bin/../lib/gcc/nios2-elf/4.8.3/../../../../../H-x86_64-mingw32/nios2-elf/lib\libc.a(lib_a-vfiprintf.o)
                                        0x748 (size before relaxing)
 .debug_str     0x0000000000003b82       0x3a c:/altera/14.1/nios2eds/bin/gnu/h-x86_64-mingw32/bin/../lib/gcc/nios2-elf/4.8.3/../../../../../H-x86_64-mingw32/nios2-elf/lib\libc.a(lib_a-writer.o)
                                        0x571 (size before relaxing)
 .debug_str     0x0000000000003bbc       0x3a c:/altera/14.1/nios2eds/bin/gnu/h-x86_64-mingw32/bin/../lib/gcc/nios2-elf/4.8.3/../../../../../H-x86_64-mingw32/nios2-elf/lib\libc.a(closer.o)
                                        0x561 (size before relaxing)
 .debug_str     0x0000000000003bf6        0xf c:/altera/14.1/nios2eds/bin/gnu/h-x86_64-mingw32/bin/../lib/gcc/nios2-elf/4.8.3/../../../../../H-x86_64-mingw32/nios2-elf/lib\libc.a(lib_a-callocr.o)
                                        0x5b0 (size before relaxing)
 .debug_str     0x0000000000003c05       0x4b c:/altera/14.1/nios2eds/bin/gnu/h-x86_64-mingw32/bin/../lib/gcc/nios2-elf/4.8.3/../../../../../H-x86_64-mingw32/nios2-elf/lib\libc.a(lib_a-fclose.o)
                                        0x5b3 (size before relaxing)
 .debug_str     0x0000000000003c50       0x58 c:/altera/14.1/nios2eds/bin/gnu/h-x86_64-mingw32/bin/../lib/gcc/nios2-elf/4.8.3/../../../../../H-x86_64-mingw32/nios2-elf/lib\libc.a(lib_a-fputwc.o)
                                        0x5c1 (size before relaxing)
 .debug_str     0x0000000000003ca8       0x46 c:/altera/14.1/nios2eds/bin/gnu/h-x86_64-mingw32/bin/../lib/gcc/nios2-elf/4.8.3/../../../../../H-x86_64-mingw32/nios2-elf/lib\libc.a(lib_a-fstatr.o)
                                        0x654 (size before relaxing)
 .debug_str     0x0000000000003cee       0x6c c:/altera/14.1/nios2eds/bin/gnu/h-x86_64-mingw32/bin/../lib/gcc/nios2-elf/4.8.3/../../../../../H-x86_64-mingw32/nios2-elf/lib\libc.a(lib_a-fvwrite.o)
                                        0x609 (size before relaxing)
 .debug_str     0x0000000000003d5a       0x42 c:/altera/14.1/nios2eds/bin/gnu/h-x86_64-mingw32/bin/../lib/gcc/nios2-elf/4.8.3/../../../../../H-x86_64-mingw32/nios2-elf/lib\libc.a(lib_a-isattyr.o)
                                        0x564 (size before relaxing)
 .debug_str     0x0000000000003d9c       0x40 c:/altera/14.1/nios2eds/bin/gnu/h-x86_64-mingw32/bin/../lib/gcc/nios2-elf/4.8.3/../../../../../H-x86_64-mingw32/nios2-elf/lib\libc.a(lib_a-lseekr.o)
                                        0x575 (size before relaxing)
 .debug_str     0x0000000000003ddc       0x45 c:/altera/14.1/nios2eds/bin/gnu/h-x86_64-mingw32/bin/../lib/gcc/nios2-elf/4.8.3/../../../../../H-x86_64-mingw32/nios2-elf/lib\libc.a(lib_a-memmove.o)
                                        0x1e0 (size before relaxing)
 .debug_str     0x0000000000003e21       0x39 c:/altera/14.1/nios2eds/bin/gnu/h-x86_64-mingw32/bin/../lib/gcc/nios2-elf/4.8.3/../../../../../H-x86_64-mingw32/nios2-elf/lib\libc.a(lib_a-readr.o)
                                        0x56e (size before relaxing)
 .debug_str     0x0000000000003e5a       0x49 c:/altera/14.1/nios2eds/bin/gnu/h-x86_64-mingw32/bin/../lib/gcc/nios2-elf/4.8.3/../../../../../H-x86_64-mingw32/nios2-elf/lib\libc.a(lib_a-reallocr.o)
                                        0x658 (size before relaxing)
 .debug_str     0x0000000000003ea3       0x40 c:/altera/14.1/nios2eds/bin/gnu/h-x86_64-mingw32/bin/../lib/gcc/nios2-elf/4.8.3/../../../../../H-x86_64-mingw32/nios2-elf/lib\libc.a(lib_a-wbuf.o)
                                        0x58b (size before relaxing)
 .debug_str     0x0000000000003ee3       0x54 c:/altera/14.1/nios2eds/bin/gnu/h-x86_64-mingw32/bin/../lib/gcc/nios2-elf/4.8.3/../../../../../H-x86_64-mingw32/nios2-elf/lib\libc.a(lib_a-wcrtomb.o)
                                        0x5a8 (size before relaxing)
 .debug_str     0x0000000000003f37       0x5d c:/altera/14.1/nios2eds/bin/gnu/h-x86_64-mingw32/bin/../lib/gcc/nios2-elf/4.8.3/../../../../../H-x86_64-mingw32/nios2-elf/lib\libc.a(lib_a-wctomb_r.o)
                                        0x5b7 (size before relaxing)
 .debug_str     0x0000000000003f94      0x175 c:/altera/14.1/nios2eds/bin/gnu/h-x86_64-mingw32/bin/../lib/gcc/nios2-elf/4.8.3\libgcc.a(_udivdi3.o)
                                        0x288 (size before relaxing)
 .debug_str     0x0000000000004109        0xa c:/altera/14.1/nios2eds/bin/gnu/h-x86_64-mingw32/bin/../lib/gcc/nios2-elf/4.8.3\libgcc.a(_umoddi3.o)
                                        0x288 (size before relaxing)
 .debug_str     0x0000000000004113       0xc2 c:/altera/14.1/nios2eds/bin/gnu/h-x86_64-mingw32/bin/../lib/gcc/nios2-elf/4.8.3\libgcc.a(adddf3.o)
                                        0x25c (size before relaxing)
 .debug_str     0x00000000000041d5       0x8a c:/altera/14.1/nios2eds/bin/gnu/h-x86_64-mingw32/bin/../lib/gcc/nios2-elf/4.8.3\libgcc.a(divdf3.o)
                                        0x29d (size before relaxing)
 .debug_str     0x000000000000425f       0x34 c:/altera/14.1/nios2eds/bin/gnu/h-x86_64-mingw32/bin/../lib/gcc/nios2-elf/4.8.3\libgcc.a(eqdf2.o)
                                        0x1f7 (size before relaxing)
 .debug_str     0x0000000000004293       0x4c c:/altera/14.1/nios2eds/bin/gnu/h-x86_64-mingw32/bin/../lib/gcc/nios2-elf/4.8.3\libgcc.a(gedf2.o)
                                        0x20f (size before relaxing)
 .debug_str     0x00000000000042df       0x34 c:/altera/14.1/nios2eds/bin/gnu/h-x86_64-mingw32/bin/../lib/gcc/nios2-elf/4.8.3\libgcc.a(ledf2.o)
                                        0x20f (size before relaxing)
 .debug_str     0x0000000000004313       0x61 c:/altera/14.1/nios2eds/bin/gnu/h-x86_64-mingw32/bin/../lib/gcc/nios2-elf/4.8.3\libgcc.a(muldf3.o)
                                        0x28f (size before relaxing)
 .debug_str     0x0000000000004374       0x36 c:/altera/14.1/nios2eds/bin/gnu/h-x86_64-mingw32/bin/../lib/gcc/nios2-elf/4.8.3\libgcc.a(subdf3.o)
                                        0x25c (size before relaxing)
 .debug_str     0x00000000000043aa       0x38 c:/altera/14.1/nios2eds/bin/gnu/h-x86_64-mingw32/bin/../lib/gcc/nios2-elf/4.8.3\libgcc.a(fixdfsi.o)
                                        0x208 (size before relaxing)
 .debug_str     0x00000000000043e2       0x49 c:/altera/14.1/nios2eds/bin/gnu/h-x86_64-mingw32/bin/../lib/gcc/nios2-elf/4.8.3\libgcc.a(floatsidf.o)
                                        0x211 (size before relaxing)
 .debug_str     0x000000000000442b       0x40 c:/altera/14.1/nios2eds/bin/gnu/h-x86_64-mingw32/bin/../lib/gcc/nios2-elf/4.8.3\libgcc.a(floatunsidf.o)
                                        0x20e (size before relaxing)
 .debug_str     0x0000000000000000      0x1cf c:/altera/14.1/nios2eds/bin/gnu/h-x86_64-mingw32/bin/../lib/gcc/nios2-elf/4.8.3\libgcc.a(_clz.o)
 .debug_str     0x000000000000446b        0x9 c:/altera/14.1/nios2eds/bin/gnu/h-x86_64-mingw32/bin/../lib/gcc/nios2-elf/4.8.3\libgcc.a(_clzsi2.o)
                                        0x1ec (size before relaxing)
 .debug_str     0x0000000000004474       0xe4 ../lab5_bsp/\libucosii_bsp.a(alt_close.o)
                                        0x262 (size before relaxing)
 .debug_str     0x0000000000004558       0x1f ../lab5_bsp/\libucosii_bsp.a(alt_dcache_flush_all.o)
                                        0x16d (size before relaxing)
 .debug_str     0x0000000000004577       0xb7 ../lab5_bsp/\libucosii_bsp.a(alt_dev.o)
                                        0x3c1 (size before relaxing)
 .debug_str     0x000000000000462e       0x58 ../lab5_bsp/\libucosii_bsp.a(alt_errno.o)
                                        0x145 (size before relaxing)
 .debug_str     0x0000000000004686       0x14 ../lab5_bsp/\libucosii_bsp.a(alt_fstat.o)
                                        0x334 (size before relaxing)
 .debug_str     0x000000000000469a       0xef ../lab5_bsp/\libucosii_bsp.a(alt_iic.o)
                                        0x26b (size before relaxing)
 .debug_str     0x0000000000004789       0x37 ../lab5_bsp/\libucosii_bsp.a(alt_iic_isr_register.o)
                                        0x225 (size before relaxing)
 .debug_str     0x00000000000047c0       0x4f ../lab5_bsp/\libucosii_bsp.a(alt_irq_handler.o)
                                        0x1ec (size before relaxing)
 .debug_str     0x000000000000480f       0x17 ../lab5_bsp/\libucosii_bsp.a(alt_irq_vars.o)
                                        0x15e (size before relaxing)
 .debug_str     0x0000000000004826       0x15 ../lab5_bsp/\libucosii_bsp.a(alt_isatty.o)
                                        0x33c (size before relaxing)
 .debug_str     0x000000000000483b       0xfe ../lab5_bsp/\libucosii_bsp.a(alt_load.o)
                                        0x23c (size before relaxing)
 .debug_str     0x0000000000004939       0x14 ../lab5_bsp/\libucosii_bsp.a(alt_lseek.o)
                                        0x259 (size before relaxing)
 .debug_str     0x000000000000494d       0xa4 ../lab5_bsp/\libucosii_bsp.a(alt_main.o)
                                        0x2d6 (size before relaxing)
 .debug_str     0x00000000000049f1       0x13 ../lab5_bsp/\libucosii_bsp.a(alt_read.o)
                                        0x33f (size before relaxing)
 .debug_str     0x0000000000004a04       0x19 ../lab5_bsp/\libucosii_bsp.a(alt_release_fd.o)
                                        0x23d (size before relaxing)
 .debug_str     0x0000000000004a1d       0x61 ../lab5_bsp/\libucosii_bsp.a(alt_sbrk.o)
                                        0x1ec (size before relaxing)
 .debug_str     0x0000000000004a7e       0x89 ../lab5_bsp/\libucosii_bsp.a(alt_tick.o)
                                        0x282 (size before relaxing)
 .debug_str     0x0000000000004b07       0x14 ../lab5_bsp/\libucosii_bsp.a(alt_write.o)
                                        0x340 (size before relaxing)
 .debug_str     0x0000000000004b1b      0x26a ../lab5_bsp/\libucosii_bsp.a(alt_env_lock.o)
                                        0x804 (size before relaxing)
 .debug_str     0x0000000000004d85       0x36 ../lab5_bsp/\libucosii_bsp.a(alt_malloc_lock.o)
                                        0x866 (size before relaxing)
 .debug_str     0x0000000000004dbb      0x5f2 ../lab5_bsp/\libucosii_bsp.a(os_core.o)
                                        0xa69 (size before relaxing)
 .debug_str     0x00000000000053ad      0x2d9 ../lab5_bsp/\libucosii_bsp.a(os_dbg.o)
                                        0x8dd (size before relaxing)
 .debug_str     0x0000000000005686      0x12a ../lab5_bsp/\libucosii_bsp.a(os_flag.o)
                                        0x632 (size before relaxing)
 .debug_str     0x00000000000057b0       0xc4 ../lab5_bsp/\libucosii_bsp.a(os_mem.o)
                                        0x332 (size before relaxing)
 .debug_str     0x0000000000005874       0xb7 ../lab5_bsp/\libucosii_bsp.a(os_q.o)
                                        0x5e9 (size before relaxing)
 .debug_str     0x000000000000592b       0x4c ../lab5_bsp/\libucosii_bsp.a(os_sem.o)
                                        0x568 (size before relaxing)
 .debug_str     0x0000000000005977       0xef ../lab5_bsp/\libucosii_bsp.a(os_task.o)
                                        0x6ab (size before relaxing)
 .debug_str     0x0000000000005a66       0x4d ../lab5_bsp/\libucosii_bsp.a(os_time.o)
                                        0x4c2 (size before relaxing)
 .debug_str     0x0000000000005ab3      0x1b2 ../lab5_bsp/\libucosii_bsp.a(alt_sys_init.o)
                                        0x4fc (size before relaxing)
 .debug_str     0x0000000000005c65      0x123 ../lab5_bsp/\libucosii_bsp.a(altera_avalon_jtag_uart_fd.o)
                                        0x523 (size before relaxing)
 .debug_str     0x0000000000005d88       0xb6 ../lab5_bsp/\libucosii_bsp.a(altera_avalon_jtag_uart_init.o)
                                        0x4c8 (size before relaxing)
 .debug_str     0x0000000000005e3e       0x2c ../lab5_bsp/\libucosii_bsp.a(altera_avalon_jtag_uart_ioctl.o)
                                        0x39b (size before relaxing)
 .debug_str     0x0000000000005e6a       0x46 ../lab5_bsp/\libucosii_bsp.a(altera_avalon_jtag_uart_read.o)
                                        0x434 (size before relaxing)
 .debug_str     0x0000000000005eb0       0x2c ../lab5_bsp/\libucosii_bsp.a(altera_avalon_jtag_uart_write.o)
                                        0x435 (size before relaxing)
 .debug_str     0x0000000000005edc       0x4d ../lab5_bsp/\libucosii_bsp.a(altera_avalon_timer_sc.o)
                                        0x28d (size before relaxing)
 .debug_str     0x0000000000005f29       0x3a ../lab5_bsp/\libucosii_bsp.a(alt_alarm_start.o)
                                        0x296 (size before relaxing)
 .debug_str     0x0000000000005f63       0x1f ../lab5_bsp/\libucosii_bsp.a(alt_dev_llist_insert.o)
                                        0x1cc (size before relaxing)
 .debug_str     0x0000000000005f82       0x3e ../lab5_bsp/\libucosii_bsp.a(alt_do_ctors.o)
                                         0xdc (size before relaxing)
 .debug_str     0x0000000000005fc0       0x4c ../lab5_bsp/\libucosii_bsp.a(alt_do_dtors.o)
                                         0xdb (size before relaxing)
 .debug_str     0x000000000000600c       0x30 ../lab5_bsp/\libucosii_bsp.a(alt_icache_flush_all.o)
                                        0x186 (size before relaxing)
 .debug_str     0x000000000000603c       0x46 ../lab5_bsp/\libucosii_bsp.a(alt_io_redirect.o)
                                        0x36d (size before relaxing)
 .debug_str     0x0000000000006082       0x4f ../lab5_bsp/\libucosii_bsp.a(alt_open.o)
                                        0x2c0 (size before relaxing)
 .debug_str     0x00000000000060d1       0x20 ../lab5_bsp/\libucosii_bsp.a(altera_nios2_qsys_irq.o)
                                        0x174 (size before relaxing)
 .debug_str     0x00000000000060f1       0x4f ../lab5_bsp/\libucosii_bsp.a(os_cpu_c.o)
                                        0x855 (size before relaxing)
 .debug_str     0x0000000000006140       0x1e ../lab5_bsp/\libucosii_bsp.a(alt_find_dev.o)
                                        0x249 (size before relaxing)
 .debug_str     0x000000000000615e       0x18 ../lab5_bsp/\libucosii_bsp.a(alt_find_file.o)
                                        0x257 (size before relaxing)
 .debug_str     0x0000000000006176       0x25 ../lab5_bsp/\libucosii_bsp.a(alt_get_fd.o)
                                        0x2f4 (size before relaxing)
 .debug_str     0x000000000000619b       0x1b ../lab5_bsp/\libucosii_bsp.a(alt_icache_flush.o)
                                        0x173 (size before relaxing)
 .debug_str     0x00000000000061b6       0x7f c:/altera/14.1/nios2eds/bin/gnu/h-x86_64-mingw32/bin/../lib/gcc/nios2-elf/4.8.3/../../../../../H-x86_64-mingw32/nios2-elf/lib\libc.a(lib_a-atexit.o)
                                        0x1ea (size before relaxing)
 .debug_str     0x0000000000006235       0x4a c:/altera/14.1/nios2eds/bin/gnu/h-x86_64-mingw32/bin/../lib/gcc/nios2-elf/4.8.3/../../../../../H-x86_64-mingw32/nios2-elf/lib\libc.a(lib_a-exit.o)
                                        0x580 (size before relaxing)
 .debug_str     0x000000000000627f       0x3b c:/altera/14.1/nios2eds/bin/gnu/h-x86_64-mingw32/bin/../lib/gcc/nios2-elf/4.8.3/../../../../../H-x86_64-mingw32/nios2-elf/lib\libc.a(lib_a-memcmp.o)
                                        0x1ad (size before relaxing)
 .debug_str     0x00000000000062ba       0x4b c:/altera/14.1/nios2eds/bin/gnu/h-x86_64-mingw32/bin/../lib/gcc/nios2-elf/4.8.3/../../../../../H-x86_64-mingw32/nios2-elf/lib\libc.a(lib_a-__atexit.o)
                                        0x5cd (size before relaxing)
 .debug_str     0x0000000000006305       0x50 c:/altera/14.1/nios2eds/bin/gnu/h-x86_64-mingw32/bin/../lib/gcc/nios2-elf/4.8.3/../../../../../H-x86_64-mingw32/nios2-elf/lib\libc.a(lib_a-__call_atexit.o)
                                        0x596 (size before relaxing)
 .debug_str     0x0000000000006355       0x2a ../lab5_bsp/\libucosii_bsp.a(alt_exit.o)
                                        0x1ab (size before relaxing)

.debug_loc      0x0000000000000000    0x25000
 *(.debug_loc)
 .debug_loc     0x0000000000000000      0x1ae obj/default/drivers/drivers.o
 .debug_loc     0x00000000000001ae      0x17a obj/default/frame.o
 .debug_loc     0x0000000000000328      0xb8b obj/default/graphic_lib/draw_gimps.o
 .debug_loc     0x0000000000000eb3      0x87f obj/default/graphic_lib/gimp_bmp.o
 .debug_loc     0x0000000000001732     0x3707 obj/default/graphic_lib/simple_graphics.o
 .debug_loc     0x0000000000004e39     0x1c57 obj/default/graphic_lib/simple_text.o
 .debug_loc     0x0000000000006a90      0x23c obj/default/hello_ucosii.o
 .debug_loc     0x0000000000006ccc      0x3b5 obj/default/vip_fr.o
 .debug_loc     0x0000000000007081      0x2d7 c:/altera/14.1/nios2eds/bin/gnu/h-x86_64-mingw32/bin/../lib/gcc/nios2-elf/4.8.3\libgcc.a(lib2-divmod.o)
 .debug_loc     0x0000000000007358       0xdb c:/altera/14.1/nios2eds/bin/gnu/h-x86_64-mingw32/bin/../lib/gcc/nios2-elf/4.8.3\libgcc.a(fixsfsi.o)
 .debug_loc     0x0000000000007433       0x58 c:/altera/14.1/nios2eds/bin/gnu/h-x86_64-mingw32/bin/../lib/gcc/nios2-elf/4.8.3/../../../../../H-x86_64-mingw32/nios2-elf/lib\libc.a(lib_a-malloc.o)
 .debug_loc     0x000000000000748b      0xc16 c:/altera/14.1/nios2eds/bin/gnu/h-x86_64-mingw32/bin/../lib/gcc/nios2-elf/4.8.3/../../../../../H-x86_64-mingw32/nios2-elf/lib\libc.a(lib_a-mallocr.o)
 .debug_loc     0x00000000000080a1      0x33d c:/altera/14.1/nios2eds/bin/gnu/h-x86_64-mingw32/bin/../lib/gcc/nios2-elf/4.8.3/../../../../../H-x86_64-mingw32/nios2-elf/lib\libc.a(lib_a-memcpy.o)
 .debug_loc     0x00000000000083de      0x1e5 c:/altera/14.1/nios2eds/bin/gnu/h-x86_64-mingw32/bin/../lib/gcc/nios2-elf/4.8.3/../../../../../H-x86_64-mingw32/nios2-elf/lib\libc.a(lib_a-memset.o)
 .debug_loc     0x00000000000085c3       0xf2 c:/altera/14.1/nios2eds/bin/gnu/h-x86_64-mingw32/bin/../lib/gcc/nios2-elf/4.8.3/../../../../../H-x86_64-mingw32/nios2-elf/lib\libc.a(lib_a-printf.o)
 .debug_loc     0x00000000000086b5       0x66 c:/altera/14.1/nios2eds/bin/gnu/h-x86_64-mingw32/bin/../lib/gcc/nios2-elf/4.8.3/../../../../../H-x86_64-mingw32/nios2-elf/lib\libc.a(lib_a-sbrkr.o)
 .debug_loc     0x000000000000871b       0xf2 c:/altera/14.1/nios2eds/bin/gnu/h-x86_64-mingw32/bin/../lib/gcc/nios2-elf/4.8.3/../../../../../H-x86_64-mingw32/nios2-elf/lib\libc.a(lib_a-strcpy.o)
 .debug_loc     0x000000000000880d       0x47 c:/altera/14.1/nios2eds/bin/gnu/h-x86_64-mingw32/bin/../lib/gcc/nios2-elf/4.8.3/../../../../../H-x86_64-mingw32/nios2-elf/lib\libc.a(lib_a-strlen.o)
 .debug_loc     0x0000000000008854     0x2d6c c:/altera/14.1/nios2eds/bin/gnu/h-x86_64-mingw32/bin/../lib/gcc/nios2-elf/4.8.3/../../../../../H-x86_64-mingw32/nios2-elf/lib\libc.a(lib_a-vfprintf.o)
 .debug_loc     0x000000000000b5c0       0x9a c:/altera/14.1/nios2eds/bin/gnu/h-x86_64-mingw32/bin/../lib/gcc/nios2-elf/4.8.3/../../../../../H-x86_64-mingw32/nios2-elf/lib\libc.a(lib_a-wsetup.o)
 .debug_loc     0x000000000000b65a     0x2647 c:/altera/14.1/nios2eds/bin/gnu/h-x86_64-mingw32/bin/../lib/gcc/nios2-elf/4.8.3/../../../../../H-x86_64-mingw32/nios2-elf/lib\libc.a(lib_a-dtoa.o)
 .debug_loc     0x000000000000dca1      0x265 c:/altera/14.1/nios2eds/bin/gnu/h-x86_64-mingw32/bin/../lib/gcc/nios2-elf/4.8.3/../../../../../H-x86_64-mingw32/nios2-elf/lib\libc.a(lib_a-fflush.o)
 .debug_loc     0x000000000000df06      0x2af c:/altera/14.1/nios2eds/bin/gnu/h-x86_64-mingw32/bin/../lib/gcc/nios2-elf/4.8.3/../../../../../H-x86_64-mingw32/nios2-elf/lib\libc.a(lib_a-findfp.o)
 .debug_loc     0x000000000000e1b5      0x4fd c:/altera/14.1/nios2eds/bin/gnu/h-x86_64-mingw32/bin/../lib/gcc/nios2-elf/4.8.3/../../../../../H-x86_64-mingw32/nios2-elf/lib\libc.a(lib_a-freer.o)
 .debug_loc     0x000000000000e6b2      0x2d4 c:/altera/14.1/nios2eds/bin/gnu/h-x86_64-mingw32/bin/../lib/gcc/nios2-elf/4.8.3/../../../../../H-x86_64-mingw32/nios2-elf/lib\libc.a(lib_a-fwalk.o)
 .debug_loc     0x000000000000e986       0xd1 c:/altera/14.1/nios2eds/bin/gnu/h-x86_64-mingw32/bin/../lib/gcc/nios2-elf/4.8.3/../../../../../H-x86_64-mingw32/nios2-elf/lib\libc.a(lib_a-locale.o)
 .debug_loc     0x000000000000ea57      0x132 c:/altera/14.1/nios2eds/bin/gnu/h-x86_64-mingw32/bin/../lib/gcc/nios2-elf/4.8.3/../../../../../H-x86_64-mingw32/nios2-elf/lib\libc.a(lib_a-makebuf.o)
 .debug_loc     0x000000000000eb89      0x19f c:/altera/14.1/nios2eds/bin/gnu/h-x86_64-mingw32/bin/../lib/gcc/nios2-elf/4.8.3/../../../../../H-x86_64-mingw32/nios2-elf/lib\libc.a(lib_a-memchr.o)
 .debug_loc     0x000000000000ed28     0x1a6f c:/altera/14.1/nios2eds/bin/gnu/h-x86_64-mingw32/bin/../lib/gcc/nios2-elf/4.8.3/../../../../../H-x86_64-mingw32/nios2-elf/lib\libc.a(lib_a-mprec.o)
 .debug_loc     0x0000000000010797       0x13 c:/altera/14.1/nios2eds/bin/gnu/h-x86_64-mingw32/bin/../lib/gcc/nios2-elf/4.8.3/../../../../../H-x86_64-mingw32/nios2-elf/lib\libc.a(lib_a-s_fpclassify.o)
 .debug_loc     0x00000000000107aa      0x319 c:/altera/14.1/nios2eds/bin/gnu/h-x86_64-mingw32/bin/../lib/gcc/nios2-elf/4.8.3/../../../../../H-x86_64-mingw32/nios2-elf/lib\libc.a(lib_a-stdio.o)
 .debug_loc     0x0000000000010ac3       0xb0 c:/altera/14.1/nios2eds/bin/gnu/h-x86_64-mingw32/bin/../lib/gcc/nios2-elf/4.8.3/../../../../../H-x86_64-mingw32/nios2-elf/lib\libc.a(lib_a-strcmp.o)
 .debug_loc     0x0000000000010b73     0x2229 c:/altera/14.1/nios2eds/bin/gnu/h-x86_64-mingw32/bin/../lib/gcc/nios2-elf/4.8.3/../../../../../H-x86_64-mingw32/nios2-elf/lib\libc.a(lib_a-vfiprintf.o)
 .debug_loc     0x0000000000012d9c       0xbe c:/altera/14.1/nios2eds/bin/gnu/h-x86_64-mingw32/bin/../lib/gcc/nios2-elf/4.8.3/../../../../../H-x86_64-mingw32/nios2-elf/lib\libc.a(lib_a-writer.o)
 .debug_loc     0x0000000000012e5a       0x66 c:/altera/14.1/nios2eds/bin/gnu/h-x86_64-mingw32/bin/../lib/gcc/nios2-elf/4.8.3/../../../../../H-x86_64-mingw32/nios2-elf/lib\libc.a(closer.o)
 .debug_loc     0x0000000000012ec0      0x24b c:/altera/14.1/nios2eds/bin/gnu/h-x86_64-mingw32/bin/../lib/gcc/nios2-elf/4.8.3/../../../../../H-x86_64-mingw32/nios2-elf/lib\libc.a(lib_a-callocr.o)
 .debug_loc     0x000000000001310b      0x116 c:/altera/14.1/nios2eds/bin/gnu/h-x86_64-mingw32/bin/../lib/gcc/nios2-elf/4.8.3/../../../../../H-x86_64-mingw32/nios2-elf/lib\libc.a(lib_a-fclose.o)
 .debug_loc     0x0000000000013221      0x26b c:/altera/14.1/nios2eds/bin/gnu/h-x86_64-mingw32/bin/../lib/gcc/nios2-elf/4.8.3/../../../../../H-x86_64-mingw32/nios2-elf/lib\libc.a(lib_a-fputwc.o)
 .debug_loc     0x000000000001348c       0x92 c:/altera/14.1/nios2eds/bin/gnu/h-x86_64-mingw32/bin/../lib/gcc/nios2-elf/4.8.3/../../../../../H-x86_64-mingw32/nios2-elf/lib\libc.a(lib_a-fstatr.o)
 .debug_loc     0x000000000001351e      0x547 c:/altera/14.1/nios2eds/bin/gnu/h-x86_64-mingw32/bin/../lib/gcc/nios2-elf/4.8.3/../../../../../H-x86_64-mingw32/nios2-elf/lib\libc.a(lib_a-fvwrite.o)
 .debug_loc     0x0000000000013a65       0x66 c:/altera/14.1/nios2eds/bin/gnu/h-x86_64-mingw32/bin/../lib/gcc/nios2-elf/4.8.3/../../../../../H-x86_64-mingw32/nios2-elf/lib\libc.a(lib_a-isattyr.o)
 .debug_loc     0x0000000000013acb       0xbe c:/altera/14.1/nios2eds/bin/gnu/h-x86_64-mingw32/bin/../lib/gcc/nios2-elf/4.8.3/../../../../../H-x86_64-mingw32/nios2-elf/lib\libc.a(lib_a-lseekr.o)
 .debug_loc     0x0000000000013b89      0x373 c:/altera/14.1/nios2eds/bin/gnu/h-x86_64-mingw32/bin/../lib/gcc/nios2-elf/4.8.3/../../../../../H-x86_64-mingw32/nios2-elf/lib\libc.a(lib_a-memmove.o)
 .debug_loc     0x0000000000013efc       0xbe c:/altera/14.1/nios2eds/bin/gnu/h-x86_64-mingw32/bin/../lib/gcc/nios2-elf/4.8.3/../../../../../H-x86_64-mingw32/nios2-elf/lib\libc.a(lib_a-readr.o)
 .debug_loc     0x0000000000013fba      0xe7f c:/altera/14.1/nios2eds/bin/gnu/h-x86_64-mingw32/bin/../lib/gcc/nios2-elf/4.8.3/../../../../../H-x86_64-mingw32/nios2-elf/lib\libc.a(lib_a-reallocr.o)
 .debug_loc     0x0000000000014e39      0x15a c:/altera/14.1/nios2eds/bin/gnu/h-x86_64-mingw32/bin/../lib/gcc/nios2-elf/4.8.3/../../../../../H-x86_64-mingw32/nios2-elf/lib\libc.a(lib_a-wbuf.o)
 .debug_loc     0x0000000000014f93      0x230 c:/altera/14.1/nios2eds/bin/gnu/h-x86_64-mingw32/bin/../lib/gcc/nios2-elf/4.8.3/../../../../../H-x86_64-mingw32/nios2-elf/lib\libc.a(lib_a-wcrtomb.o)
 .debug_loc     0x00000000000151c3       0x8f c:/altera/14.1/nios2eds/bin/gnu/h-x86_64-mingw32/bin/../lib/gcc/nios2-elf/4.8.3/../../../../../H-x86_64-mingw32/nios2-elf/lib\libc.a(lib_a-wctomb_r.o)
 .debug_loc     0x0000000000015252     0x1171 c:/altera/14.1/nios2eds/bin/gnu/h-x86_64-mingw32/bin/../lib/gcc/nios2-elf/4.8.3\libgcc.a(_udivdi3.o)
 .debug_loc     0x00000000000163c3     0x1046 c:/altera/14.1/nios2eds/bin/gnu/h-x86_64-mingw32/bin/../lib/gcc/nios2-elf/4.8.3\libgcc.a(_umoddi3.o)
 .debug_loc     0x0000000000017409     0x1768 c:/altera/14.1/nios2eds/bin/gnu/h-x86_64-mingw32/bin/../lib/gcc/nios2-elf/4.8.3\libgcc.a(adddf3.o)
 .debug_loc     0x0000000000018b71     0x1f0c c:/altera/14.1/nios2eds/bin/gnu/h-x86_64-mingw32/bin/../lib/gcc/nios2-elf/4.8.3\libgcc.a(divdf3.o)
 .debug_loc     0x000000000001aa7d       0x52 c:/altera/14.1/nios2eds/bin/gnu/h-x86_64-mingw32/bin/../lib/gcc/nios2-elf/4.8.3\libgcc.a(eqdf2.o)
 .debug_loc     0x000000000001aacf       0x9b c:/altera/14.1/nios2eds/bin/gnu/h-x86_64-mingw32/bin/../lib/gcc/nios2-elf/4.8.3\libgcc.a(gedf2.o)
 .debug_loc     0x000000000001ab6a      0x136 c:/altera/14.1/nios2eds/bin/gnu/h-x86_64-mingw32/bin/../lib/gcc/nios2-elf/4.8.3\libgcc.a(ledf2.o)
 .debug_loc     0x000000000001aca0      0xf10 c:/altera/14.1/nios2eds/bin/gnu/h-x86_64-mingw32/bin/../lib/gcc/nios2-elf/4.8.3\libgcc.a(muldf3.o)
 .debug_loc     0x000000000001bbb0     0x16c4 c:/altera/14.1/nios2eds/bin/gnu/h-x86_64-mingw32/bin/../lib/gcc/nios2-elf/4.8.3\libgcc.a(subdf3.o)
 .debug_loc     0x000000000001d274      0x170 c:/altera/14.1/nios2eds/bin/gnu/h-x86_64-mingw32/bin/../lib/gcc/nios2-elf/4.8.3\libgcc.a(fixdfsi.o)
 .debug_loc     0x000000000001d3e4      0x15a c:/altera/14.1/nios2eds/bin/gnu/h-x86_64-mingw32/bin/../lib/gcc/nios2-elf/4.8.3\libgcc.a(floatsidf.o)
 .debug_loc     0x000000000001d53e      0x15f c:/altera/14.1/nios2eds/bin/gnu/h-x86_64-mingw32/bin/../lib/gcc/nios2-elf/4.8.3\libgcc.a(floatunsidf.o)
 .debug_loc     0x000000000001d69d      0x19a c:/altera/14.1/nios2eds/bin/gnu/h-x86_64-mingw32/bin/../lib/gcc/nios2-elf/4.8.3\libgcc.a(_clzsi2.o)
 .debug_loc     0x000000000001d837       0xcc ../lab5_bsp/\libucosii_bsp.a(alt_close.o)
 .debug_loc     0x000000000001d903       0x1f ../lab5_bsp/\libucosii_bsp.a(alt_dcache_flush_all.o)
 .debug_loc     0x000000000001d922       0xd4 ../lab5_bsp/\libucosii_bsp.a(alt_fstat.o)
 .debug_loc     0x000000000001d9f6      0x149 ../lab5_bsp/\libucosii_bsp.a(alt_iic.o)
 .debug_loc     0x000000000001db3f      0x1e0 ../lab5_bsp/\libucosii_bsp.a(alt_iic_isr_register.o)
 .debug_loc     0x000000000001dd1f       0xa5 ../lab5_bsp/\libucosii_bsp.a(alt_irq_handler.o)
 .debug_loc     0x000000000001ddc4       0xbc ../lab5_bsp/\libucosii_bsp.a(alt_isatty.o)
 .debug_loc     0x000000000001de80       0x66 ../lab5_bsp/\libucosii_bsp.a(alt_load.o)
 .debug_loc     0x000000000001dee6      0x15c ../lab5_bsp/\libucosii_bsp.a(alt_lseek.o)
 .debug_loc     0x000000000001e042       0x1e ../lab5_bsp/\libucosii_bsp.a(alt_main.o)
 .debug_loc     0x000000000001e060      0x1e2 ../lab5_bsp/\libucosii_bsp.a(alt_read.o)
 .debug_loc     0x000000000001e242       0x21 ../lab5_bsp/\libucosii_bsp.a(alt_release_fd.o)
 .debug_loc     0x000000000001e263       0x34 ../lab5_bsp/\libucosii_bsp.a(alt_sbrk.o)
 .debug_loc     0x000000000001e297       0x4f ../lab5_bsp/\libucosii_bsp.a(alt_tick.o)
 .debug_loc     0x000000000001e2e6      0x1e2 ../lab5_bsp/\libucosii_bsp.a(alt_write.o)
 .debug_loc     0x000000000001e4c8       0x55 ../lab5_bsp/\libucosii_bsp.a(alt_env_lock.o)
 .debug_loc     0x000000000001e51d      0x126 ../lab5_bsp/\libucosii_bsp.a(alt_malloc_lock.o)
 .debug_loc     0x000000000001e643     0x129c ../lab5_bsp/\libucosii_bsp.a(os_core.o)
 .debug_loc     0x000000000001f8df     0x10c5 ../lab5_bsp/\libucosii_bsp.a(os_flag.o)
 .debug_loc     0x00000000000209a4      0x47d ../lab5_bsp/\libucosii_bsp.a(os_mem.o)
 .debug_loc     0x0000000000020e21      0xd7d ../lab5_bsp/\libucosii_bsp.a(os_q.o)
 .debug_loc     0x0000000000021b9e      0x6e7 ../lab5_bsp/\libucosii_bsp.a(os_sem.o)
 .debug_loc     0x0000000000022285     0x1258 ../lab5_bsp/\libucosii_bsp.a(os_task.o)
 .debug_loc     0x00000000000234dd      0x312 ../lab5_bsp/\libucosii_bsp.a(os_time.o)
 .debug_loc     0x00000000000237ef       0x21 ../lab5_bsp/\libucosii_bsp.a(alt_sys_init.o)
 .debug_loc     0x0000000000023810      0x218 ../lab5_bsp/\libucosii_bsp.a(altera_avalon_jtag_uart_fd.o)
 .debug_loc     0x0000000000023a28      0x302 ../lab5_bsp/\libucosii_bsp.a(altera_avalon_jtag_uart_init.o)
 .debug_loc     0x0000000000023d2a       0x9f ../lab5_bsp/\libucosii_bsp.a(altera_avalon_jtag_uart_ioctl.o)
 .debug_loc     0x0000000000023dc9      0x200 ../lab5_bsp/\libucosii_bsp.a(altera_avalon_jtag_uart_read.o)
 .debug_loc     0x0000000000023fc9      0x229 ../lab5_bsp/\libucosii_bsp.a(altera_avalon_jtag_uart_write.o)
 .debug_loc     0x00000000000241f2      0x10d ../lab5_bsp/\libucosii_bsp.a(altera_avalon_timer_sc.o)
 .debug_loc     0x00000000000242ff       0xbd ../lab5_bsp/\libucosii_bsp.a(alt_alarm_start.o)
 .debug_loc     0x00000000000243bc       0xcc ../lab5_bsp/\libucosii_bsp.a(alt_dev_llist_insert.o)
 .debug_loc     0x0000000000024488       0x13 ../lab5_bsp/\libucosii_bsp.a(alt_do_ctors.o)
 .debug_loc     0x000000000002449b       0x13 ../lab5_bsp/\libucosii_bsp.a(alt_do_dtors.o)
 .debug_loc     0x00000000000244ae      0x13c ../lab5_bsp/\libucosii_bsp.a(alt_io_redirect.o)
 .debug_loc     0x00000000000245ea      0x252 ../lab5_bsp/\libucosii_bsp.a(alt_open.o)
 .debug_loc     0x000000000002483c      0x10e ../lab5_bsp/\libucosii_bsp.a(os_cpu_c.o)
 .debug_loc     0x000000000002494a       0x7e ../lab5_bsp/\libucosii_bsp.a(alt_find_dev.o)
 .debug_loc     0x00000000000249c8       0x7e ../lab5_bsp/\libucosii_bsp.a(alt_find_file.o)
 .debug_loc     0x0000000000024a46       0xa1 ../lab5_bsp/\libucosii_bsp.a(alt_get_fd.o)
 .debug_loc     0x0000000000024ae7       0x5d ../lab5_bsp/\libucosii_bsp.a(alt_icache_flush.o)
 .debug_loc     0x0000000000024b44       0x2c c:/altera/14.1/nios2eds/bin/gnu/h-x86_64-mingw32/bin/../lib/gcc/nios2-elf/4.8.3/../../../../../H-x86_64-mingw32/nios2-elf/lib\libc.a(lib_a-atexit.o)
 .debug_loc     0x0000000000024b70       0x1e c:/altera/14.1/nios2eds/bin/gnu/h-x86_64-mingw32/bin/../lib/gcc/nios2-elf/4.8.3/../../../../../H-x86_64-mingw32/nios2-elf/lib\libc.a(lib_a-exit.o)
 .debug_loc     0x0000000000024b8e      0x126 c:/altera/14.1/nios2eds/bin/gnu/h-x86_64-mingw32/bin/../lib/gcc/nios2-elf/4.8.3/../../../../../H-x86_64-mingw32/nios2-elf/lib\libc.a(lib_a-memcmp.o)
 .debug_loc     0x0000000000024cb4      0x174 c:/altera/14.1/nios2eds/bin/gnu/h-x86_64-mingw32/bin/../lib/gcc/nios2-elf/4.8.3/../../../../../H-x86_64-mingw32/nios2-elf/lib\libc.a(lib_a-__atexit.o)
 .debug_loc     0x0000000000024e28      0x1d8 c:/altera/14.1/nios2eds/bin/gnu/h-x86_64-mingw32/bin/../lib/gcc/nios2-elf/4.8.3/../../../../../H-x86_64-mingw32/nios2-elf/lib\libc.a(lib_a-__call_atexit.o)

.debug_macinfo
 *(.debug_macinfo)

.debug_weaknames
 *(.debug_weaknames)

.debug_funcnames
 *(.debug_funcnames)

.debug_typenames
 *(.debug_typenames)

.debug_varnames
 *(.debug_varnames)

.debug_alt_sim_info
                0x0000000000000000       0x30
 *(.debug_alt_sim_info)
 .debug_alt_sim_info
                0x0000000000000000       0x30 ../lab5_bsp//obj/HAL/src/crt0.o
                0x0000000008000000                __alt_data_end = 0x8000000
                0x0000000008000000                PROVIDE (__alt_stack_pointer, __alt_data_end)
                0x0000000004744b94                PROVIDE (__alt_stack_limit, __alt_stack_base)
                0x0000000004744b94                PROVIDE (__alt_heap_start, end)
                0x0000000008000000                PROVIDE (__alt_heap_limit, 0x8000000)
OUTPUT(lab5.elf elf32-littlenios2)

.debug_ranges   0x0000000000000000     0x16f8
 .debug_ranges  0x0000000000000000       0x20 ../lab5_bsp//obj/HAL/src/crt0.o
 .debug_ranges  0x0000000000000020      0x120 obj/default/graphic_lib/simple_graphics.o
 .debug_ranges  0x0000000000000140       0xc0 obj/default/graphic_lib/simple_text.o
 .debug_ranges  0x0000000000000200       0x18 obj/default/hello_ucosii.o
 .debug_ranges  0x0000000000000218       0x18 obj/default/vip_fr.o
 .debug_ranges  0x0000000000000230       0x18 c:/altera/14.1/nios2eds/bin/gnu/h-x86_64-mingw32/bin/../lib/gcc/nios2-elf/4.8.3\libgcc.a(fixsfsi.o)
 .debug_ranges  0x0000000000000248       0x38 c:/altera/14.1/nios2eds/bin/gnu/h-x86_64-mingw32/bin/../lib/gcc/nios2-elf/4.8.3/../../../../../H-x86_64-mingw32/nios2-elf/lib\libc.a(lib_a-mallocr.o)
 .debug_ranges  0x0000000000000280      0x120 c:/altera/14.1/nios2eds/bin/gnu/h-x86_64-mingw32/bin/../lib/gcc/nios2-elf/4.8.3/../../../../../H-x86_64-mingw32/nios2-elf/lib\libc.a(lib_a-vfprintf.o)
 .debug_ranges  0x00000000000003a0       0x20 c:/altera/14.1/nios2eds/bin/gnu/h-x86_64-mingw32/bin/../lib/gcc/nios2-elf/4.8.3/../../../../../H-x86_64-mingw32/nios2-elf/lib\libc.a(lib_a-fflush.o)
 .debug_ranges  0x00000000000003c0       0x60 c:/altera/14.1/nios2eds/bin/gnu/h-x86_64-mingw32/bin/../lib/gcc/nios2-elf/4.8.3/../../../../../H-x86_64-mingw32/nios2-elf/lib\libc.a(lib_a-findfp.o)
 .debug_ranges  0x0000000000000420       0x40 c:/altera/14.1/nios2eds/bin/gnu/h-x86_64-mingw32/bin/../lib/gcc/nios2-elf/4.8.3/../../../../../H-x86_64-mingw32/nios2-elf/lib\libc.a(lib_a-fwalk.o)
 .debug_ranges  0x0000000000000460       0x50 c:/altera/14.1/nios2eds/bin/gnu/h-x86_64-mingw32/bin/../lib/gcc/nios2-elf/4.8.3/../../../../../H-x86_64-mingw32/nios2-elf/lib\libc.a(lib_a-mprec.o)
 .debug_ranges  0x00000000000004b0      0x1c8 c:/altera/14.1/nios2eds/bin/gnu/h-x86_64-mingw32/bin/../lib/gcc/nios2-elf/4.8.3/../../../../../H-x86_64-mingw32/nios2-elf/lib\libc.a(lib_a-vfiprintf.o)
 .debug_ranges  0x0000000000000678       0x48 c:/altera/14.1/nios2eds/bin/gnu/h-x86_64-mingw32/bin/../lib/gcc/nios2-elf/4.8.3/../../../../../H-x86_64-mingw32/nios2-elf/lib\libc.a(lib_a-callocr.o)
 .debug_ranges  0x00000000000006c0       0x18 c:/altera/14.1/nios2eds/bin/gnu/h-x86_64-mingw32/bin/../lib/gcc/nios2-elf/4.8.3/../../../../../H-x86_64-mingw32/nios2-elf/lib\libc.a(lib_a-fputwc.o)
 .debug_ranges  0x00000000000006d8       0x20 c:/altera/14.1/nios2eds/bin/gnu/h-x86_64-mingw32/bin/../lib/gcc/nios2-elf/4.8.3/../../../../../H-x86_64-mingw32/nios2-elf/lib\libc.a(lib_a-fvwrite.o)
 .debug_ranges  0x00000000000006f8      0x138 c:/altera/14.1/nios2eds/bin/gnu/h-x86_64-mingw32/bin/../lib/gcc/nios2-elf/4.8.3/../../../../../H-x86_64-mingw32/nios2-elf/lib\libc.a(lib_a-reallocr.o)
 .debug_ranges  0x0000000000000830      0x170 c:/altera/14.1/nios2eds/bin/gnu/h-x86_64-mingw32/bin/../lib/gcc/nios2-elf/4.8.3\libgcc.a(_udivdi3.o)
 .debug_ranges  0x00000000000009a0      0x150 c:/altera/14.1/nios2eds/bin/gnu/h-x86_64-mingw32/bin/../lib/gcc/nios2-elf/4.8.3\libgcc.a(_umoddi3.o)
 .debug_ranges  0x0000000000000af0      0x238 c:/altera/14.1/nios2eds/bin/gnu/h-x86_64-mingw32/bin/../lib/gcc/nios2-elf/4.8.3\libgcc.a(adddf3.o)
 .debug_ranges  0x0000000000000d28      0x138 c:/altera/14.1/nios2eds/bin/gnu/h-x86_64-mingw32/bin/../lib/gcc/nios2-elf/4.8.3\libgcc.a(divdf3.o)
 .debug_ranges  0x0000000000000e60       0x48 c:/altera/14.1/nios2eds/bin/gnu/h-x86_64-mingw32/bin/../lib/gcc/nios2-elf/4.8.3\libgcc.a(eqdf2.o)
 .debug_ranges  0x0000000000000ea8       0x68 c:/altera/14.1/nios2eds/bin/gnu/h-x86_64-mingw32/bin/../lib/gcc/nios2-elf/4.8.3\libgcc.a(gedf2.o)
 .debug_ranges  0x0000000000000f10       0x98 c:/altera/14.1/nios2eds/bin/gnu/h-x86_64-mingw32/bin/../lib/gcc/nios2-elf/4.8.3\libgcc.a(ledf2.o)
 .debug_ranges  0x0000000000000fa8      0x238 c:/altera/14.1/nios2eds/bin/gnu/h-x86_64-mingw32/bin/../lib/gcc/nios2-elf/4.8.3\libgcc.a(muldf3.o)
 .debug_ranges  0x00000000000011e0      0x228 c:/altera/14.1/nios2eds/bin/gnu/h-x86_64-mingw32/bin/../lib/gcc/nios2-elf/4.8.3\libgcc.a(subdf3.o)
 .debug_ranges  0x0000000000001408       0x38 c:/altera/14.1/nios2eds/bin/gnu/h-x86_64-mingw32/bin/../lib/gcc/nios2-elf/4.8.3\libgcc.a(fixdfsi.o)
 .debug_ranges  0x0000000000001440       0x30 c:/altera/14.1/nios2eds/bin/gnu/h-x86_64-mingw32/bin/../lib/gcc/nios2-elf/4.8.3\libgcc.a(floatsidf.o)
 .debug_ranges  0x0000000000001470       0x30 c:/altera/14.1/nios2eds/bin/gnu/h-x86_64-mingw32/bin/../lib/gcc/nios2-elf/4.8.3\libgcc.a(floatunsidf.o)
 .debug_ranges  0x00000000000014a0       0x28 c:/altera/14.1/nios2eds/bin/gnu/h-x86_64-mingw32/bin/../lib/gcc/nios2-elf/4.8.3\libgcc.a(_clzsi2.o)
 .debug_ranges  0x00000000000014c8       0x28 ../lab5_bsp/\libucosii_bsp.a(alt_irq_entry.o)
 .debug_ranges  0x00000000000014f0       0x10 ../lab5_bsp/\libucosii_bsp.a(alt_irq_handler.o)
 .debug_ranges  0x0000000000001500       0x30 ../lab5_bsp/\libucosii_bsp.a(os_core.o)
 .debug_ranges  0x0000000000001530       0x18 ../lab5_bsp/\libucosii_bsp.a(os_flag.o)
 .debug_ranges  0x0000000000001548       0x18 ../lab5_bsp/\libucosii_bsp.a(os_mem.o)
 .debug_ranges  0x0000000000001560       0x18 ../lab5_bsp/\libucosii_bsp.a(os_q.o)
 .debug_ranges  0x0000000000001578       0x18 ../lab5_bsp/\libucosii_bsp.a(os_sem.o)
 .debug_ranges  0x0000000000001590       0x30 ../lab5_bsp/\libucosii_bsp.a(os_task.o)
 .debug_ranges  0x00000000000015c0       0x60 ../lab5_bsp/\libucosii_bsp.a(altera_avalon_jtag_uart_init.o)
 .debug_ranges  0x0000000000001620       0x18 ../lab5_bsp/\libucosii_bsp.a(altera_avalon_jtag_uart_read.o)
 .debug_ranges  0x0000000000001638       0x38 ../lab5_bsp/\libucosii_bsp.a(altera_avalon_jtag_uart_write.o)
 .debug_ranges  0x0000000000001670       0x18 ../lab5_bsp/\libucosii_bsp.a(alt_dev_llist_insert.o)
 .debug_ranges  0x0000000000001688       0x30 ../lab5_bsp/\libucosii_bsp.a(alt_exception_entry.o)
 .debug_ranges  0x00000000000016b8       0x18 ../lab5_bsp/\libucosii_bsp.a(alt_open.o)
 .debug_ranges  0x00000000000016d0       0x10 ../lab5_bsp/\libucosii_bsp.a(alt_icache_flush.o)
 .debug_ranges  0x00000000000016e0       0x18 c:/altera/14.1/nios2eds/bin/gnu/h-x86_64-mingw32/bin/../lib/gcc/nios2-elf/4.8.3/../../../../../H-x86_64-mingw32/nios2-elf/lib\libc.a(lib_a-__call_atexit.o)
